Archive member included to satisfy reference by file (symbol)

/home/kaviya/ti/ccsv7/tools/compiler/gcc-arm-none-eabi-6-2017-q1-update/bin/../lib/gcc/arm-none-eabi/6.3.1/../../../../arm-none-eabi/lib/thumb/v7e-m/fpv4-sp/hard/libc.a(lib_a-exit.o)
                              /home/kaviya/ti/ccsv7/tools/compiler/gcc-arm-none-eabi-6-2017-q1-update/bin/../lib/gcc/arm-none-eabi/6.3.1/../../../../arm-none-eabi/lib/thumb/v7e-m/fpv4-sp/hard/crt0.o (exit)
/home/kaviya/ti/ccsv7/tools/compiler/gcc-arm-none-eabi-6-2017-q1-update/bin/../lib/gcc/arm-none-eabi/6.3.1/../../../../arm-none-eabi/lib/thumb/v7e-m/fpv4-sp/hard/libc.a(lib_a-impure.o)
                              /home/kaviya/ti/ccsv7/tools/compiler/gcc-arm-none-eabi-6-2017-q1-update/bin/../lib/gcc/arm-none-eabi/6.3.1/../../../../arm-none-eabi/lib/thumb/v7e-m/fpv4-sp/hard/libc.a(lib_a-exit.o) (_global_impure_ptr)
/home/kaviya/ti/ccsv7/tools/compiler/gcc-arm-none-eabi-6-2017-q1-update/bin/../lib/gcc/arm-none-eabi/6.3.1/../../../../arm-none-eabi/lib/thumb/v7e-m/fpv4-sp/hard/libc.a(lib_a-init.o)
                              /home/kaviya/ti/ccsv7/tools/compiler/gcc-arm-none-eabi-6-2017-q1-update/bin/../lib/gcc/arm-none-eabi/6.3.1/../../../../arm-none-eabi/lib/thumb/v7e-m/fpv4-sp/hard/crt0.o (__libc_init_array)
/home/kaviya/ti/ccsv7/tools/compiler/gcc-arm-none-eabi-6-2017-q1-update/bin/../lib/gcc/arm-none-eabi/6.3.1/../../../../arm-none-eabi/lib/thumb/v7e-m/fpv4-sp/hard/libc.a(lib_a-itoa.o)
                              ./UART.o (__itoa)
/home/kaviya/ti/ccsv7/tools/compiler/gcc-arm-none-eabi-6-2017-q1-update/bin/../lib/gcc/arm-none-eabi/6.3.1/../../../../arm-none-eabi/lib/thumb/v7e-m/fpv4-sp/hard/libc.a(lib_a-memset.o)
                              /home/kaviya/ti/ccsv7/tools/compiler/gcc-arm-none-eabi-6-2017-q1-update/bin/../lib/gcc/arm-none-eabi/6.3.1/../../../../arm-none-eabi/lib/thumb/v7e-m/fpv4-sp/hard/crt0.o (memset)
/home/kaviya/ti/ccsv7/tools/compiler/gcc-arm-none-eabi-6-2017-q1-update/bin/../lib/gcc/arm-none-eabi/6.3.1/../../../../arm-none-eabi/lib/thumb/v7e-m/fpv4-sp/hard/libc.a(lib_a-strlen.o)
                              ./UART.o (strlen)
/home/kaviya/ti/ccsv7/tools/compiler/gcc-arm-none-eabi-6-2017-q1-update/bin/../lib/gcc/arm-none-eabi/6.3.1/../../../../arm-none-eabi/lib/thumb/v7e-m/fpv4-sp/hard/libc.a(lib_a-utoa.o)
                              /home/kaviya/ti/ccsv7/tools/compiler/gcc-arm-none-eabi-6-2017-q1-update/bin/../lib/gcc/arm-none-eabi/6.3.1/../../../../arm-none-eabi/lib/thumb/v7e-m/fpv4-sp/hard/libc.a(lib_a-itoa.o) (__utoa)
/home/kaviya/ti/ccsv7/tools/compiler/gcc-arm-none-eabi-6-2017-q1-update/bin/../lib/gcc/arm-none-eabi/6.3.1/../../../../arm-none-eabi/lib/thumb/v7e-m/fpv4-sp/hard/libc.a(lib_a-__call_atexit.o)
                              /home/kaviya/ti/ccsv7/tools/compiler/gcc-arm-none-eabi-6-2017-q1-update/bin/../lib/gcc/arm-none-eabi/6.3.1/../../../../arm-none-eabi/lib/thumb/v7e-m/fpv4-sp/hard/libc.a(lib_a-exit.o) (__call_exitprocs)
/home/kaviya/ti/ccsv7/tools/compiler/gcc-arm-none-eabi-6-2017-q1-update/bin/../lib/gcc/arm-none-eabi/6.3.1/../../../../arm-none-eabi/lib/thumb/v7e-m/fpv4-sp/hard/libc.a(lib_a-atexit.o)
                              /home/kaviya/ti/ccsv7/tools/compiler/gcc-arm-none-eabi-6-2017-q1-update/bin/../lib/gcc/arm-none-eabi/6.3.1/../../../../arm-none-eabi/lib/thumb/v7e-m/fpv4-sp/hard/libc.a(lib_a-__call_atexit.o) (atexit)
/home/kaviya/ti/ccsv7/tools/compiler/gcc-arm-none-eabi-6-2017-q1-update/bin/../lib/gcc/arm-none-eabi/6.3.1/../../../../arm-none-eabi/lib/thumb/v7e-m/fpv4-sp/hard/libc.a(lib_a-fini.o)
                              /home/kaviya/ti/ccsv7/tools/compiler/gcc-arm-none-eabi-6-2017-q1-update/bin/../lib/gcc/arm-none-eabi/6.3.1/../../../../arm-none-eabi/lib/thumb/v7e-m/fpv4-sp/hard/libc.a(lib_a-__call_atexit.o) (__libc_fini_array)
/home/kaviya/ti/ccsv7/tools/compiler/gcc-arm-none-eabi-6-2017-q1-update/bin/../lib/gcc/arm-none-eabi/6.3.1/../../../../arm-none-eabi/lib/thumb/v7e-m/fpv4-sp/hard/libc.a(lib_a-lock.o)
                              /home/kaviya/ti/ccsv7/tools/compiler/gcc-arm-none-eabi-6-2017-q1-update/bin/../lib/gcc/arm-none-eabi/6.3.1/../../../../arm-none-eabi/lib/thumb/v7e-m/fpv4-sp/hard/libc.a(lib_a-__call_atexit.o) (__retarget_lock_acquire_recursive)
/home/kaviya/ti/ccsv7/tools/compiler/gcc-arm-none-eabi-6-2017-q1-update/bin/../lib/gcc/arm-none-eabi/6.3.1/../../../../arm-none-eabi/lib/thumb/v7e-m/fpv4-sp/hard/libc.a(lib_a-__atexit.o)
                              /home/kaviya/ti/ccsv7/tools/compiler/gcc-arm-none-eabi-6-2017-q1-update/bin/../lib/gcc/arm-none-eabi/6.3.1/../../../../arm-none-eabi/lib/thumb/v7e-m/fpv4-sp/hard/libc.a(lib_a-atexit.o) (__register_exitproc)
/home/kaviya/ti/ccsv7/tools/compiler/gcc-arm-none-eabi-6-2017-q1-update/bin/../lib/gcc/arm-none-eabi/6.3.1/../../../../arm-none-eabi/lib/thumb/v7e-m/fpv4-sp/hard/librdimon.a(rdimon-_exit.o)
                              /home/kaviya/ti/ccsv7/tools/compiler/gcc-arm-none-eabi-6-2017-q1-update/bin/../lib/gcc/arm-none-eabi/6.3.1/../../../../arm-none-eabi/lib/thumb/v7e-m/fpv4-sp/hard/libc.a(lib_a-exit.o) (_exit)
/home/kaviya/ti/ccsv7/tools/compiler/gcc-arm-none-eabi-6-2017-q1-update/bin/../lib/gcc/arm-none-eabi/6.3.1/../../../../arm-none-eabi/lib/thumb/v7e-m/fpv4-sp/hard/librdimon.a(rdimon-_kill.o)
                              /home/kaviya/ti/ccsv7/tools/compiler/gcc-arm-none-eabi-6-2017-q1-update/bin/../lib/gcc/arm-none-eabi/6.3.1/../../../../arm-none-eabi/lib/thumb/v7e-m/fpv4-sp/hard/librdimon.a(rdimon-_exit.o) (_kill)
/home/kaviya/ti/TivaWare_C_Series-2.1.4.178/driverlib/gcc/libdriver.a(adc.o)
                              ./touch.o (ADCIntEnable)
/home/kaviya/ti/TivaWare_C_Series-2.1.4.178/driverlib/gcc/libdriver.a(fpu.o)
                              ./LCD_stairs.o (FPUEnable)
/home/kaviya/ti/TivaWare_C_Series-2.1.4.178/driverlib/gcc/libdriver.a(gpio.o)
                              ./Kentec320x240x16_ssd2119_spi.o (GPIOPinWrite)
/home/kaviya/ti/TivaWare_C_Series-2.1.4.178/driverlib/gcc/libdriver.a(interrupt.o)
                              /home/kaviya/ti/TivaWare_C_Series-2.1.4.178/driverlib/gcc/libdriver.a(adc.o) (IntRegister)
/home/kaviya/ti/TivaWare_C_Series-2.1.4.178/driverlib/gcc/libdriver.a(ssi.o)
                              ./Kentec320x240x16_ssd2119_spi.o (SSIConfigSetExpClk)
/home/kaviya/ti/TivaWare_C_Series-2.1.4.178/driverlib/gcc/libdriver.a(sysctl.o)
                              ./Kentec320x240x16_ssd2119_spi.o (SysCtlPeripheralEnable)
/home/kaviya/ti/TivaWare_C_Series-2.1.4.178/driverlib/gcc/libdriver.a(timer.o)
                              ./touch.o (TimerEnable)
/home/kaviya/ti/TivaWare_C_Series-2.1.4.178/driverlib/gcc/libdriver.a(uart.o)
                              ./UART.o (UARTConfigSetExpClk)
/home/kaviya/ti/TivaWare_C_Series-2.1.4.178/driverlib/gcc/libdriver.a(cpu.o)
                              /home/kaviya/ti/TivaWare_C_Series-2.1.4.178/driverlib/gcc/libdriver.a(interrupt.o) (CPUcpsid)
/home/kaviya/ti/TivaWare_C_Series-2.1.4.178/grlib/gcc/libgr.a(context.o)
                              ./LCD_stairs.o (GrContextInit)
/home/kaviya/ti/TivaWare_C_Series-2.1.4.178/grlib/gcc/libgr.a(fontcm12.o)
                              ./LCD.o (g_sFontCm12)
/home/kaviya/ti/TivaWare_C_Series-2.1.4.178/grlib/gcc/libgr.a(fontcm14.o)
                              ./LCD.o (g_sFontCm14)
/home/kaviya/ti/TivaWare_C_Series-2.1.4.178/grlib/gcc/libgr.a(fontcm16.o)
                              ./LCD_stairs.o (g_sFontCm16)
/home/kaviya/ti/TivaWare_C_Series-2.1.4.178/grlib/gcc/libgr.a(fontcm20.o)
                              ./touch_isr.o (g_sFontCm20)
/home/kaviya/ti/TivaWare_C_Series-2.1.4.178/grlib/gcc/libgr.a(line.o)
                              ./LCD.o (GrLineDrawH)
/home/kaviya/ti/TivaWare_C_Series-2.1.4.178/grlib/gcc/libgr.a(pushbutton.o)
                              ./touch_isr.o (RectangularButtonMsgProc)
/home/kaviya/ti/TivaWare_C_Series-2.1.4.178/grlib/gcc/libgr.a(rectangle.o)
                              /home/kaviya/ti/TivaWare_C_Series-2.1.4.178/grlib/gcc/libgr.a(pushbutton.o) (GrRectDraw)
/home/kaviya/ti/TivaWare_C_Series-2.1.4.178/grlib/gcc/libgr.a(slider.o)
                              ./touch_isr.o (SliderMsgProc)
/home/kaviya/ti/TivaWare_C_Series-2.1.4.178/grlib/gcc/libgr.a(string.o)
                              ./LCD.o (GrStringDraw)
/home/kaviya/ti/TivaWare_C_Series-2.1.4.178/grlib/gcc/libgr.a(widget.o)
                              /home/kaviya/ti/TivaWare_C_Series-2.1.4.178/grlib/gcc/libgr.a(pushbutton.o) (WidgetDefaultMsgProc)
/home/kaviya/ti/TivaWare_C_Series-2.1.4.178/grlib/gcc/libgr.a(charmap.o)
                              /home/kaviya/ti/TivaWare_C_Series-2.1.4.178/grlib/gcc/libgr.a(context.o) (GrMapISO8859_1_Unicode)
/home/kaviya/ti/TivaWare_C_Series-2.1.4.178/grlib/gcc/libgr.a(circle.o)
                              /home/kaviya/ti/TivaWare_C_Series-2.1.4.178/grlib/gcc/libgr.a(pushbutton.o) (GrCircleDraw)
/home/kaviya/ti/TivaWare_C_Series-2.1.4.178/grlib/gcc/libgr.a(image.o)
                              /home/kaviya/ti/TivaWare_C_Series-2.1.4.178/grlib/gcc/libgr.a(pushbutton.o) (GrImageDraw)
/home/kaviya/ti/ccsv7/tools/compiler/gcc-arm-none-eabi-6-2017-q1-update/bin/../lib/gcc/arm-none-eabi/6.3.1/thumb/v7e-m/fpv4-sp/hard/libgcc.a(_arm_addsubdf3.o)
                              ./UART.o (__aeabi_dsub)
/home/kaviya/ti/ccsv7/tools/compiler/gcc-arm-none-eabi-6-2017-q1-update/bin/../lib/gcc/arm-none-eabi/6.3.1/thumb/v7e-m/fpv4-sp/hard/libgcc.a(_arm_muldivdf3.o)
                              ./UART.o (__aeabi_dmul)
/home/kaviya/ti/ccsv7/tools/compiler/gcc-arm-none-eabi-6-2017-q1-update/bin/../lib/gcc/arm-none-eabi/6.3.1/thumb/v7e-m/fpv4-sp/hard/libgcc.a(_arm_cmpdf2.o)
                              ./UART.o (__aeabi_dcmplt)
/home/kaviya/ti/ccsv7/tools/compiler/gcc-arm-none-eabi-6-2017-q1-update/bin/../lib/gcc/arm-none-eabi/6.3.1/thumb/v7e-m/fpv4-sp/hard/libgcc.a(_arm_fixdfsi.o)
                              ./UART.o (__aeabi_d2iz)

Allocating common symbols
Common symbol       size              file

Rect_ch2            0x8               ./touch_isr.o
Rect_t2             0x8               ./LCD.o
__lock___atexit_recursive_mutex
                    0x1               /home/kaviya/ti/ccsv7/tools/compiler/gcc-arm-none-eabi-6-2017-q1-update/bin/../lib/gcc/arm-none-eabi/6.3.1/../../../../arm-none-eabi/lib/thumb/v7e-m/fpv4-sp/hard/libc.a(lib_a-lock.o)
Rect_t1             0x8               ./LCD.o
Rect_TB2            0x8               ./touch_isr.o
__lock___arc4random_mutex
                    0x1               /home/kaviya/ti/ccsv7/tools/compiler/gcc-arm-none-eabi-6-2017-q1-update/bin/../lib/gcc/arm-none-eabi/6.3.1/../../../../arm-none-eabi/lib/thumb/v7e-m/fpv4-sp/hard/libc.a(lib_a-lock.o)
Rect_vpp_ch1        0x8               ./LCD.o
Rect_vpp_ch2        0x8               ./LCD.o
Rect_f_ch1          0x8               ./LCD.o
sRect               0x8               ./LCD.o
RectL_ch2           0x8               ./LCD.o
string              0x64              ./UART.o
__lock___env_recursive_mutex
                    0x1               /home/kaviya/ti/ccsv7/tools/compiler/gcc-arm-none-eabi-6-2017-q1-update/bin/../lib/gcc/arm-none-eabi/6.3.1/../../../../arm-none-eabi/lib/thumb/v7e-m/fpv4-sp/hard/libc.a(lib_a-lock.o)
__lock___sinit_recursive_mutex
                    0x1               /home/kaviya/ti/ccsv7/tools/compiler/gcc-arm-none-eabi-6-2017-q1-update/bin/../lib/gcc/arm-none-eabi/6.3.1/../../../../arm-none-eabi/lib/thumb/v7e-m/fpv4-sp/hard/libc.a(lib_a-lock.o)
Rect_R              0x8               ./LCD_stairs.o
sContext            0x2c              ./LCD.o
__lock___malloc_recursive_mutex
                    0x1               /home/kaviya/ti/ccsv7/tools/compiler/gcc-arm-none-eabi-6-2017-q1-update/bin/../lib/gcc/arm-none-eabi/6.3.1/../../../../arm-none-eabi/lib/thumb/v7e-m/fpv4-sp/hard/libc.a(lib_a-lock.o)
Rect_TB1            0x8               ./touch_isr.o
g_i16TouchX         0x2               ./touch.o
g_pi32ParmSet       0x4               ./touch.o
str_left            0xa               ./LCD.o
str_time            0xa               ./LCD.o
RectR_ch2           0x8               ./LCD.o
Rect_f_ch2          0x8               ./LCD.o
Rect_M              0x8               ./LCD_stairs.o
Rect_ch1            0x8               ./touch_isr.o
diff                0x4               ./LCD.o
__lock___at_quick_exit_mutex
                    0x1               /home/kaviya/ti/ccsv7/tools/compiler/gcc-arm-none-eabi-6-2017-q1-update/bin/../lib/gcc/arm-none-eabi/6.3.1/../../../../arm-none-eabi/lib/thumb/v7e-m/fpv4-sp/hard/libc.a(lib_a-lock.o)
g_i16TouchY         0x2               ./touch.o
str_right           0xa               ./LCD.o
__lock___dd_hash_mutex
                    0x1               /home/kaviya/ti/ccsv7/tools/compiler/gcc-arm-none-eabi-6-2017-q1-update/bin/../lib/gcc/arm-none-eabi/6.3.1/../../../../arm-none-eabi/lib/thumb/v7e-m/fpv4-sp/hard/libc.a(lib_a-lock.o)
__lock___tz_mutex   0x1               /home/kaviya/ti/ccsv7/tools/compiler/gcc-arm-none-eabi-6-2017-q1-update/bin/../lib/gcc/arm-none-eabi/6.3.1/../../../../arm-none-eabi/lib/thumb/v7e-m/fpv4-sp/hard/libc.a(lib_a-lock.o)
Rect_L              0x8               ./LCD_stairs.o
ui32SysClock        0x4               ./LCD.o
__lock___sfp_recursive_mutex
                    0x1               /home/kaviya/ti/ccsv7/tools/compiler/gcc-arm-none-eabi-6-2017-q1-update/bin/../lib/gcc/arm-none-eabi/6.3.1/../../../../arm-none-eabi/lib/thumb/v7e-m/fpv4-sp/hard/libc.a(lib_a-lock.o)

Memory Configuration

Name             Origin             Length             Attributes
FLASH            0x0000000000000000 0x0000000000040000 xr
SRAM             0x0000000020000000 0x0000000000008000 xw
*default*        0x0000000000000000 0xffffffffffffffff

Linker script and memory map

LOAD /home/kaviya/ti/ccsv7/tools/compiler/gcc-arm-none-eabi-6-2017-q1-update/bin/../lib/gcc/arm-none-eabi/6.3.1/thumb/v7e-m/fpv4-sp/hard/crti.o
LOAD /home/kaviya/ti/ccsv7/tools/compiler/gcc-arm-none-eabi-6-2017-q1-update/bin/../lib/gcc/arm-none-eabi/6.3.1/thumb/v7e-m/fpv4-sp/hard/crtbegin.o
LOAD /home/kaviya/ti/ccsv7/tools/compiler/gcc-arm-none-eabi-6-2017-q1-update/bin/../lib/gcc/arm-none-eabi/6.3.1/../../../../arm-none-eabi/lib/thumb/v7e-m/fpv4-sp/hard/crt0.o
LOAD ./Kentec320x240x16_ssd2119_spi.o
LOAD ./LCD.o
LOAD ./LCD_stairs.o
LOAD ./UART.o
LOAD ./images.o
LOAD ./tm4c123gh6pm_startup_ccs_gcc.o
LOAD ./touch.o
LOAD ./touch_isr.o
LOAD ./ustdlib.o
                0x0000000000000000                PROVIDE (_intvecs_base_address, 0x0)

.intvecs        0x0000000000000000      0x26c
 *(.intvecs)
 .intvecs       0x0000000000000000      0x26c ./tm4c123gh6pm_startup_ccs_gcc.o
                0x0000000000000000                g_pfnVectors
                0x0000000020000000                PROVIDE (_vtable_base_address, 0x20000000)

.vtable
 *(.vtable)

.text           0x0000000000000280     0xa484
 CREATE_OBJECT_SYMBOLS
 *(.text)
 .text          0x0000000000000280        0x0 /home/kaviya/ti/ccsv7/tools/compiler/gcc-arm-none-eabi-6-2017-q1-update/bin/../lib/gcc/arm-none-eabi/6.3.1/thumb/v7e-m/fpv4-sp/hard/crti.o
 .text          0x0000000000000280       0x6c /home/kaviya/ti/ccsv7/tools/compiler/gcc-arm-none-eabi-6-2017-q1-update/bin/../lib/gcc/arm-none-eabi/6.3.1/thumb/v7e-m/fpv4-sp/hard/crtbegin.o
 .text          0x00000000000002ec       0x74 /home/kaviya/ti/ccsv7/tools/compiler/gcc-arm-none-eabi-6-2017-q1-update/bin/../lib/gcc/arm-none-eabi/6.3.1/../../../../arm-none-eabi/lib/thumb/v7e-m/fpv4-sp/hard/crt0.o
                0x00000000000002ec                _mainCRTStartup
                0x00000000000002ec                _start
 .text          0x0000000000000360        0x0 ./Kentec320x240x16_ssd2119_spi.o
 .text          0x0000000000000360        0x0 ./LCD.o
 .text          0x0000000000000360        0x0 ./LCD_stairs.o
 .text          0x0000000000000360        0x0 ./UART.o
 .text          0x0000000000000360        0x0 ./images.o
 .text          0x0000000000000360        0x0 ./tm4c123gh6pm_startup_ccs_gcc.o
 .text          0x0000000000000360        0x0 ./touch.o
 .text          0x0000000000000360        0x0 ./touch_isr.o
 .text          0x0000000000000360        0x0 ./ustdlib.o
 .text          0x0000000000000360        0x0 /home/kaviya/ti/ccsv7/tools/compiler/gcc-arm-none-eabi-6-2017-q1-update/bin/../lib/gcc/arm-none-eabi/6.3.1/../../../../arm-none-eabi/lib/thumb/v7e-m/fpv4-sp/hard/libc.a(lib_a-exit.o)
 .text          0x0000000000000360        0x0 /home/kaviya/ti/ccsv7/tools/compiler/gcc-arm-none-eabi-6-2017-q1-update/bin/../lib/gcc/arm-none-eabi/6.3.1/../../../../arm-none-eabi/lib/thumb/v7e-m/fpv4-sp/hard/libc.a(lib_a-impure.o)
 .text          0x0000000000000360        0x0 /home/kaviya/ti/ccsv7/tools/compiler/gcc-arm-none-eabi-6-2017-q1-update/bin/../lib/gcc/arm-none-eabi/6.3.1/../../../../arm-none-eabi/lib/thumb/v7e-m/fpv4-sp/hard/libc.a(lib_a-init.o)
 .text          0x0000000000000360        0x0 /home/kaviya/ti/ccsv7/tools/compiler/gcc-arm-none-eabi-6-2017-q1-update/bin/../lib/gcc/arm-none-eabi/6.3.1/../../../../arm-none-eabi/lib/thumb/v7e-m/fpv4-sp/hard/libc.a(lib_a-itoa.o)
 .text          0x0000000000000360        0x0 /home/kaviya/ti/ccsv7/tools/compiler/gcc-arm-none-eabi-6-2017-q1-update/bin/../lib/gcc/arm-none-eabi/6.3.1/../../../../arm-none-eabi/lib/thumb/v7e-m/fpv4-sp/hard/libc.a(lib_a-memset.o)
 *fill*         0x0000000000000360       0x20 
 .text          0x0000000000000380       0xdc /home/kaviya/ti/ccsv7/tools/compiler/gcc-arm-none-eabi-6-2017-q1-update/bin/../lib/gcc/arm-none-eabi/6.3.1/../../../../arm-none-eabi/lib/thumb/v7e-m/fpv4-sp/hard/libc.a(lib_a-strlen.o)
                0x0000000000000380                strlen
 .text          0x000000000000045c        0x0 /home/kaviya/ti/ccsv7/tools/compiler/gcc-arm-none-eabi-6-2017-q1-update/bin/../lib/gcc/arm-none-eabi/6.3.1/../../../../arm-none-eabi/lib/thumb/v7e-m/fpv4-sp/hard/libc.a(lib_a-utoa.o)
 .text          0x000000000000045c        0x0 /home/kaviya/ti/ccsv7/tools/compiler/gcc-arm-none-eabi-6-2017-q1-update/bin/../lib/gcc/arm-none-eabi/6.3.1/../../../../arm-none-eabi/lib/thumb/v7e-m/fpv4-sp/hard/libc.a(lib_a-__call_atexit.o)
 .text          0x000000000000045c        0x0 /home/kaviya/ti/ccsv7/tools/compiler/gcc-arm-none-eabi-6-2017-q1-update/bin/../lib/gcc/arm-none-eabi/6.3.1/../../../../arm-none-eabi/lib/thumb/v7e-m/fpv4-sp/hard/libc.a(lib_a-atexit.o)
 .text          0x000000000000045c        0x0 /home/kaviya/ti/ccsv7/tools/compiler/gcc-arm-none-eabi-6-2017-q1-update/bin/../lib/gcc/arm-none-eabi/6.3.1/../../../../arm-none-eabi/lib/thumb/v7e-m/fpv4-sp/hard/libc.a(lib_a-fini.o)
 .text          0x000000000000045c        0x0 /home/kaviya/ti/ccsv7/tools/compiler/gcc-arm-none-eabi-6-2017-q1-update/bin/../lib/gcc/arm-none-eabi/6.3.1/../../../../arm-none-eabi/lib/thumb/v7e-m/fpv4-sp/hard/libc.a(lib_a-lock.o)
 .text          0x000000000000045c        0x0 /home/kaviya/ti/ccsv7/tools/compiler/gcc-arm-none-eabi-6-2017-q1-update/bin/../lib/gcc/arm-none-eabi/6.3.1/../../../../arm-none-eabi/lib/thumb/v7e-m/fpv4-sp/hard/libc.a(lib_a-__atexit.o)
 .text          0x000000000000045c        0x0 /home/kaviya/ti/ccsv7/tools/compiler/gcc-arm-none-eabi-6-2017-q1-update/bin/../lib/gcc/arm-none-eabi/6.3.1/../../../../arm-none-eabi/lib/thumb/v7e-m/fpv4-sp/hard/librdimon.a(rdimon-_exit.o)
 .text          0x000000000000045c        0x0 /home/kaviya/ti/ccsv7/tools/compiler/gcc-arm-none-eabi-6-2017-q1-update/bin/../lib/gcc/arm-none-eabi/6.3.1/../../../../arm-none-eabi/lib/thumb/v7e-m/fpv4-sp/hard/librdimon.a(rdimon-_kill.o)
 .text          0x000000000000045c        0x0 /home/kaviya/ti/TivaWare_C_Series-2.1.4.178/driverlib/gcc/libdriver.a(adc.o)
 .text          0x000000000000045c        0x0 /home/kaviya/ti/TivaWare_C_Series-2.1.4.178/driverlib/gcc/libdriver.a(fpu.o)
 .text          0x000000000000045c        0x0 /home/kaviya/ti/TivaWare_C_Series-2.1.4.178/driverlib/gcc/libdriver.a(gpio.o)
 .text          0x000000000000045c        0x0 /home/kaviya/ti/TivaWare_C_Series-2.1.4.178/driverlib/gcc/libdriver.a(interrupt.o)
 .text          0x000000000000045c        0x0 /home/kaviya/ti/TivaWare_C_Series-2.1.4.178/driverlib/gcc/libdriver.a(ssi.o)
 .text          0x000000000000045c        0x0 /home/kaviya/ti/TivaWare_C_Series-2.1.4.178/driverlib/gcc/libdriver.a(sysctl.o)
 .text          0x000000000000045c        0x0 /home/kaviya/ti/TivaWare_C_Series-2.1.4.178/driverlib/gcc/libdriver.a(timer.o)
 .text          0x000000000000045c        0x0 /home/kaviya/ti/TivaWare_C_Series-2.1.4.178/driverlib/gcc/libdriver.a(uart.o)
 .text          0x000000000000045c        0x0 /home/kaviya/ti/TivaWare_C_Series-2.1.4.178/driverlib/gcc/libdriver.a(cpu.o)
 .text          0x000000000000045c        0x0 /home/kaviya/ti/TivaWare_C_Series-2.1.4.178/grlib/gcc/libgr.a(context.o)
 .text          0x000000000000045c        0x0 /home/kaviya/ti/TivaWare_C_Series-2.1.4.178/grlib/gcc/libgr.a(fontcm12.o)
 .text          0x000000000000045c        0x0 /home/kaviya/ti/TivaWare_C_Series-2.1.4.178/grlib/gcc/libgr.a(fontcm14.o)
 .text          0x000000000000045c        0x0 /home/kaviya/ti/TivaWare_C_Series-2.1.4.178/grlib/gcc/libgr.a(fontcm16.o)
 .text          0x000000000000045c        0x0 /home/kaviya/ti/TivaWare_C_Series-2.1.4.178/grlib/gcc/libgr.a(fontcm20.o)
 .text          0x000000000000045c        0x0 /home/kaviya/ti/TivaWare_C_Series-2.1.4.178/grlib/gcc/libgr.a(line.o)
 .text          0x000000000000045c        0x0 /home/kaviya/ti/TivaWare_C_Series-2.1.4.178/grlib/gcc/libgr.a(pushbutton.o)
 .text          0x000000000000045c        0x0 /home/kaviya/ti/TivaWare_C_Series-2.1.4.178/grlib/gcc/libgr.a(rectangle.o)
 .text          0x000000000000045c        0x0 /home/kaviya/ti/TivaWare_C_Series-2.1.4.178/grlib/gcc/libgr.a(slider.o)
 .text          0x000000000000045c        0x0 /home/kaviya/ti/TivaWare_C_Series-2.1.4.178/grlib/gcc/libgr.a(string.o)
 .text          0x000000000000045c        0x0 /home/kaviya/ti/TivaWare_C_Series-2.1.4.178/grlib/gcc/libgr.a(widget.o)
 .text          0x000000000000045c        0x0 /home/kaviya/ti/TivaWare_C_Series-2.1.4.178/grlib/gcc/libgr.a(charmap.o)
 .text          0x000000000000045c        0x0 /home/kaviya/ti/TivaWare_C_Series-2.1.4.178/grlib/gcc/libgr.a(circle.o)
 .text          0x000000000000045c        0x0 /home/kaviya/ti/TivaWare_C_Series-2.1.4.178/grlib/gcc/libgr.a(image.o)
 .text          0x000000000000045c      0x370 /home/kaviya/ti/ccsv7/tools/compiler/gcc-arm-none-eabi-6-2017-q1-update/bin/../lib/gcc/arm-none-eabi/6.3.1/thumb/v7e-m/fpv4-sp/hard/libgcc.a(_arm_addsubdf3.o)
                0x000000000000045c                __aeabi_drsub
                0x0000000000000464                __aeabi_dsub
                0x0000000000000464                __subdf3
                0x0000000000000468                __adddf3
                0x0000000000000468                __aeabi_dadd
                0x00000000000006e0                __aeabi_ui2d
                0x00000000000006e0                __floatunsidf
                0x0000000000000700                __floatsidf
                0x0000000000000700                __aeabi_i2d
                0x0000000000000724                __extendsfdf2
                0x0000000000000724                __aeabi_f2d
                0x0000000000000760                __aeabi_ul2d
                0x0000000000000760                __floatundidf
                0x0000000000000770                __floatdidf
                0x0000000000000770                __aeabi_l2d
 .text          0x00000000000007cc      0x424 /home/kaviya/ti/ccsv7/tools/compiler/gcc-arm-none-eabi-6-2017-q1-update/bin/../lib/gcc/arm-none-eabi/6.3.1/thumb/v7e-m/fpv4-sp/hard/libgcc.a(_arm_muldivdf3.o)
                0x00000000000007cc                __aeabi_dmul
                0x00000000000007cc                __muldf3
                0x0000000000000a20                __aeabi_ddiv
                0x0000000000000a20                __divdf3
 .text          0x0000000000000bf0      0x110 /home/kaviya/ti/ccsv7/tools/compiler/gcc-arm-none-eabi-6-2017-q1-update/bin/../lib/gcc/arm-none-eabi/6.3.1/thumb/v7e-m/fpv4-sp/hard/libgcc.a(_arm_cmpdf2.o)
                0x0000000000000bf0                __gtdf2
                0x0000000000000bf0                __gedf2
                0x0000000000000bf8                __ltdf2
                0x0000000000000bf8                __ledf2
                0x0000000000000c00                __cmpdf2
                0x0000000000000c00                __eqdf2
                0x0000000000000c00                __nedf2
                0x0000000000000c7c                __aeabi_cdrcmple
                0x0000000000000c8c                __aeabi_cdcmple
                0x0000000000000c8c                __aeabi_cdcmpeq
                0x0000000000000c9c                __aeabi_dcmpeq
                0x0000000000000cb0                __aeabi_dcmplt
                0x0000000000000cc4                __aeabi_dcmple
                0x0000000000000cd8                __aeabi_dcmpge
                0x0000000000000cec                __aeabi_dcmpgt
 .text          0x0000000000000d00       0x50 /home/kaviya/ti/ccsv7/tools/compiler/gcc-arm-none-eabi-6-2017-q1-update/bin/../lib/gcc/arm-none-eabi/6.3.1/thumb/v7e-m/fpv4-sp/hard/libgcc.a(_arm_fixdfsi.o)
                0x0000000000000d00                __fixdfsi
                0x0000000000000d00                __aeabi_d2iz
 .text          0x0000000000000d50        0x0 /home/kaviya/ti/ccsv7/tools/compiler/gcc-arm-none-eabi-6-2017-q1-update/bin/../lib/gcc/arm-none-eabi/6.3.1/thumb/v7e-m/fpv4-sp/hard/crtend.o
 .text          0x0000000000000d50        0x0 /home/kaviya/ti/ccsv7/tools/compiler/gcc-arm-none-eabi-6-2017-q1-update/bin/../lib/gcc/arm-none-eabi/6.3.1/thumb/v7e-m/fpv4-sp/hard/crtn.o
 *(.text.*)
 .text.LED_ON   0x0000000000000d50       0x18 ./Kentec320x240x16_ssd2119_spi.o
 .text.LED_OFF  0x0000000000000d68       0x18 ./Kentec320x240x16_ssd2119_spi.o
 .text.WriteDataSPI
                0x0000000000000d80       0x68 ./Kentec320x240x16_ssd2119_spi.o
 .text.WriteCommandSPI
                0x0000000000000de8       0x64 ./Kentec320x240x16_ssd2119_spi.o
 .text.InitSPILCDInterface
                0x0000000000000e4c      0x100 ./Kentec320x240x16_ssd2119_spi.o
 .text.Kentec320x240x16_SSD2119Init
                0x0000000000000f4c      0x1f8 ./Kentec320x240x16_ssd2119_spi.o
                0x0000000000000f4c                Kentec320x240x16_SSD2119Init
 .text.Kentec320x240x16_SSD2119PixelDraw
                0x0000000000001144       0x54 ./Kentec320x240x16_ssd2119_spi.o
 .text.Kentec320x240x16_SSD2119PixelDrawMultiple
                0x0000000000001198      0x258 ./Kentec320x240x16_ssd2119_spi.o
 .text.Kentec320x240x16_SSD2119LineDrawH
                0x00000000000013f0       0x70 ./Kentec320x240x16_ssd2119_spi.o
 .text.Kentec320x240x16_SSD2119LineDrawV
                0x0000000000001460       0x70 ./Kentec320x240x16_ssd2119_spi.o
 .text.Kentec320x240x16_SSD2119RectFill
                0x00000000000014d0      0x130 ./Kentec320x240x16_ssd2119_spi.o
 .text.Kentec320x240x16_SSD2119ColorTranslate
                0x0000000000001600       0x32 ./Kentec320x240x16_ssd2119_spi.o
 .text.Kentec320x240x16_SSD2119Flush
                0x0000000000001632       0x14 ./Kentec320x240x16_ssd2119_spi.o
 *fill*         0x0000000000001646        0x2 
 .text.print_time
                0x0000000000001648      0x2d8 ./LCD.o
                0x0000000000001648                print_time
 .text.print_time_ch2
                0x0000000000001920      0x2d8 ./LCD.o
                0x0000000000001920                print_time_ch2
 .text.clear_screen_grid
                0x0000000000001bf8      0x23c ./LCD.o
                0x0000000000001bf8                clear_screen_grid
 .text.print_waveform1_ch1
                0x0000000000001e34      0x184 ./LCD.o
                0x0000000000001e34                print_waveform1_ch1
 .text.print_waveform_ch1
                0x0000000000001fb8      0x4d4 ./LCD.o
                0x0000000000001fb8                print_waveform_ch1
 .text.print_waveform_ch2
                0x000000000000248c      0x4b8 ./LCD.o
                0x000000000000248c                print_waveform_ch2
 .text.peak_to_peak
                0x0000000000002944       0xe0 ./LCD.o
                0x0000000000002944                peak_to_peak
 .text.frequency
                0x0000000000002a24       0x6c ./LCD.o
                0x0000000000002a24                frequency
 .text.ADCgetdata
                0x0000000000002a90       0xf8 ./LCD_stairs.o
                0x0000000000002a90                ADCgetdata
 .text.ADCEnable
                0x0000000000002b88       0x64 ./LCD_stairs.o
                0x0000000000002b88                ADCEnable
 .text.main     0x0000000000002bec      0x390 ./LCD_stairs.o
                0x0000000000002bec                main
 .text.UARTIntHandler
                0x0000000000002f7c       0xa0 ./UART.o
                0x0000000000002f7c                UARTIntHandler
 .text.UART_init
                0x000000000000301c       0x64 ./UART.o
                0x000000000000301c                UART_init
 .text.UART_get_string
                0x0000000000003080       0x44 ./UART.o
                0x0000000000003080                UART_get_string
 .text.UART_string
                0x00000000000030c4       0x30 ./UART.o
                0x00000000000030c4                UART_string
 .text.UART_integer_digit
                0x00000000000030f4       0x58 ./UART.o
                0x00000000000030f4                UART_integer_digit
 .text.UART_integer
                0x000000000000314c       0x28 ./UART.o
                0x000000000000314c                UART_integer
 .text.UART_newline
                0x0000000000003174       0x1c ./UART.o
                0x0000000000003174                UART_newline
 .text.UART_Htab
                0x0000000000003190       0x14 ./UART.o
                0x0000000000003190                UART_Htab
 .text.UART_float
                0x00000000000031a4      0x130 ./UART.o
                0x00000000000031a4                UART_float
 .text.UARTwrite
                0x00000000000032d4       0x50 ./UART.o
                0x00000000000032d4                UARTwrite
 .text.UARTvprintf
                0x0000000000003324      0x410 ./UART.o
                0x0000000000003324                UARTvprintf
 .text.UARTprintf
                0x0000000000003734       0x24 ./UART.o
                0x0000000000003734                UARTprintf
 .text.ResetISR
                0x0000000000003758       0x6c ./tm4c123gh6pm_startup_ccs_gcc.o
                0x0000000000003758                ResetISR
 .text.NmiSR    0x00000000000037c4        0x6 ./tm4c123gh6pm_startup_ccs_gcc.o
 .text.FaultISR
                0x00000000000037ca        0x6 ./tm4c123gh6pm_startup_ccs_gcc.o
 .text.IntDefaultHandler
                0x00000000000037d0        0x6 ./tm4c123gh6pm_startup_ccs_gcc.o
 *fill*         0x00000000000037d6        0x2 
 .text.TouchScreenDebouncer
                0x00000000000037d8      0x28c ./touch.o
 .text.TouchScreenIntHandler
                0x0000000000003a64      0x188 ./touch.o
                0x0000000000003a64                TouchScreenIntHandler
 .text.TouchScreenInit
                0x0000000000003bec      0x128 ./touch.o
                0x0000000000003bec                TouchScreenInit
 .text.TouchScreenCallbackSet
                0x0000000000003d14       0x20 ./touch.o
                0x0000000000003d14                TouchScreenCallbackSet
 .text.new_press
                0x0000000000003d34      0x108 ./touch_isr.o
                0x0000000000003d34                new_press
 .text.move_slider_press_ch1
                0x0000000000003e3c      0x39c ./touch_isr.o
                0x0000000000003e3c                move_slider_press_ch1
 .text.move_slider_press_ch2
                0x00000000000041d8      0x378 ./touch_isr.o
                0x00000000000041d8                move_slider_press_ch2
 .text.start_press
                0x0000000000004550      0x168 ./touch_isr.o
                0x0000000000004550                start_press
 .text.plus_press
                0x00000000000046b8      0x110 ./touch_isr.o
                0x00000000000046b8                plus_press
 .text.minus_press
                0x00000000000047c8      0x10c ./touch_isr.o
                0x00000000000047c8                minus_press
 .text.increase_press
                0x00000000000048d4      0x14c ./touch_isr.o
                0x00000000000048d4                increase_press
 .text.decrease_press
                0x0000000000004a20      0x150 ./touch_isr.o
                0x0000000000004a20                decrease_press
 .text.ustrncpy
                0x0000000000004b70       0x6a ./ustdlib.o
                0x0000000000004b70                ustrncpy
 *fill*         0x0000000000004bda        0x2 
 .text.uvsnprintf
                0x0000000000004bdc      0x504 ./ustdlib.o
                0x0000000000004bdc                uvsnprintf
 .text.usprintf
                0x00000000000050e0       0x30 ./ustdlib.o
                0x00000000000050e0                usprintf
 .text.usnprintf
                0x0000000000005110       0x30 ./ustdlib.o
                0x0000000000005110                usnprintf
 .text.ulocaltime
                0x0000000000005140      0x17c ./ustdlib.o
                0x0000000000005140                ulocaltime
 .text.ucmptime
                0x00000000000052bc       0xe4 ./ustdlib.o
 .text.umktime  0x00000000000053a0       0x8c ./ustdlib.o
                0x00000000000053a0                umktime
 .text.ustrtoul
                0x000000000000542c      0x150 ./ustdlib.o
                0x000000000000542c                ustrtoul
 .text.ustrtof  0x000000000000557c      0x274 ./ustdlib.o
                0x000000000000557c                ustrtof
 .text.ustrlen  0x00000000000057f0       0x2e ./ustdlib.o
                0x00000000000057f0                ustrlen
 .text.ustrstr  0x000000000000581e       0x40 ./ustdlib.o
                0x000000000000581e                ustrstr
 .text.ustrncasecmp
                0x000000000000585e       0xa2 ./ustdlib.o
                0x000000000000585e                ustrncasecmp
 .text.ustrcasecmp
                0x0000000000005900       0x20 ./ustdlib.o
                0x0000000000005900                ustrcasecmp
 .text.ustrncmp
                0x0000000000005920       0x6a ./ustdlib.o
                0x0000000000005920                ustrncmp
 .text.ustrcmp  0x000000000000598a       0x20 ./ustdlib.o
                0x000000000000598a                ustrcmp
 *fill*         0x00000000000059aa        0x2 
 .text.usrand   0x00000000000059ac       0x20 ./ustdlib.o
                0x00000000000059ac                usrand
 .text.urand    0x00000000000059cc       0x30 ./ustdlib.o
                0x00000000000059cc                urand
 .text.exit     0x00000000000059fc       0x20 /home/kaviya/ti/ccsv7/tools/compiler/gcc-arm-none-eabi-6-2017-q1-update/bin/../lib/gcc/arm-none-eabi/6.3.1/../../../../arm-none-eabi/lib/thumb/v7e-m/fpv4-sp/hard/libc.a(lib_a-exit.o)
                0x00000000000059fc                exit
 .text.__libc_init_array
                0x0000000000005a1c       0x50 /home/kaviya/ti/ccsv7/tools/compiler/gcc-arm-none-eabi-6-2017-q1-update/bin/../lib/gcc/arm-none-eabi/6.3.1/../../../../arm-none-eabi/lib/thumb/v7e-m/fpv4-sp/hard/libc.a(lib_a-init.o)
                0x0000000000005a1c                __libc_init_array
 .text.__itoa   0x0000000000005a6c       0x30 /home/kaviya/ti/ccsv7/tools/compiler/gcc-arm-none-eabi-6-2017-q1-update/bin/../lib/gcc/arm-none-eabi/6.3.1/../../../../arm-none-eabi/lib/thumb/v7e-m/fpv4-sp/hard/libc.a(lib_a-itoa.o)
                0x0000000000005a6c                __itoa
 .text.itoa     0x0000000000005a9c        0x4 /home/kaviya/ti/ccsv7/tools/compiler/gcc-arm-none-eabi-6-2017-q1-update/bin/../lib/gcc/arm-none-eabi/6.3.1/../../../../arm-none-eabi/lib/thumb/v7e-m/fpv4-sp/hard/libc.a(lib_a-itoa.o)
                0x0000000000005a9c                itoa
 .text.memset   0x0000000000005aa0       0x9c /home/kaviya/ti/ccsv7/tools/compiler/gcc-arm-none-eabi-6-2017-q1-update/bin/../lib/gcc/arm-none-eabi/6.3.1/../../../../arm-none-eabi/lib/thumb/v7e-m/fpv4-sp/hard/libc.a(lib_a-memset.o)
                0x0000000000005aa0                memset
 .text.__utoa   0x0000000000005b3c       0x80 /home/kaviya/ti/ccsv7/tools/compiler/gcc-arm-none-eabi-6-2017-q1-update/bin/../lib/gcc/arm-none-eabi/6.3.1/../../../../arm-none-eabi/lib/thumb/v7e-m/fpv4-sp/hard/libc.a(lib_a-utoa.o)
                0x0000000000005b3c                __utoa
 .text.utoa     0x0000000000005bbc        0x4 /home/kaviya/ti/ccsv7/tools/compiler/gcc-arm-none-eabi-6-2017-q1-update/bin/../lib/gcc/arm-none-eabi/6.3.1/../../../../arm-none-eabi/lib/thumb/v7e-m/fpv4-sp/hard/libc.a(lib_a-utoa.o)
                0x0000000000005bbc                utoa
 .text.startup.register_fini
                0x0000000000005bc0       0x14 /home/kaviya/ti/ccsv7/tools/compiler/gcc-arm-none-eabi-6-2017-q1-update/bin/../lib/gcc/arm-none-eabi/6.3.1/../../../../arm-none-eabi/lib/thumb/v7e-m/fpv4-sp/hard/libc.a(lib_a-__call_atexit.o)
 .text.__call_exitprocs
                0x0000000000005bd4       0xe8 /home/kaviya/ti/ccsv7/tools/compiler/gcc-arm-none-eabi-6-2017-q1-update/bin/../lib/gcc/arm-none-eabi/6.3.1/../../../../arm-none-eabi/lib/thumb/v7e-m/fpv4-sp/hard/libc.a(lib_a-__call_atexit.o)
                0x0000000000005bd4                __call_exitprocs
 .text.atexit   0x0000000000005cbc        0xc /home/kaviya/ti/ccsv7/tools/compiler/gcc-arm-none-eabi-6-2017-q1-update/bin/../lib/gcc/arm-none-eabi/6.3.1/../../../../arm-none-eabi/lib/thumb/v7e-m/fpv4-sp/hard/libc.a(lib_a-atexit.o)
                0x0000000000005cbc                atexit
 .text.__libc_fini_array
                0x0000000000005cc8       0x34 /home/kaviya/ti/ccsv7/tools/compiler/gcc-arm-none-eabi-6-2017-q1-update/bin/../lib/gcc/arm-none-eabi/6.3.1/../../../../arm-none-eabi/lib/thumb/v7e-m/fpv4-sp/hard/libc.a(lib_a-fini.o)
                0x0000000000005cc8                __libc_fini_array
 .text.__retarget_lock_init
                0x0000000000005cfc        0x4 /home/kaviya/ti/ccsv7/tools/compiler/gcc-arm-none-eabi-6-2017-q1-update/bin/../lib/gcc/arm-none-eabi/6.3.1/../../../../arm-none-eabi/lib/thumb/v7e-m/fpv4-sp/hard/libc.a(lib_a-lock.o)
                0x0000000000005cfc                __retarget_lock_init
 .text.__retarget_lock_init_recursive
                0x0000000000005d00        0x4 /home/kaviya/ti/ccsv7/tools/compiler/gcc-arm-none-eabi-6-2017-q1-update/bin/../lib/gcc/arm-none-eabi/6.3.1/../../../../arm-none-eabi/lib/thumb/v7e-m/fpv4-sp/hard/libc.a(lib_a-lock.o)
                0x0000000000005d00                __retarget_lock_init_recursive
 .text.__retarget_lock_close
                0x0000000000005d04        0x4 /home/kaviya/ti/ccsv7/tools/compiler/gcc-arm-none-eabi-6-2017-q1-update/bin/../lib/gcc/arm-none-eabi/6.3.1/../../../../arm-none-eabi/lib/thumb/v7e-m/fpv4-sp/hard/libc.a(lib_a-lock.o)
                0x0000000000005d04                __retarget_lock_close
 .text.__retarget_lock_close_recursive
                0x0000000000005d08        0x4 /home/kaviya/ti/ccsv7/tools/compiler/gcc-arm-none-eabi-6-2017-q1-update/bin/../lib/gcc/arm-none-eabi/6.3.1/../../../../arm-none-eabi/lib/thumb/v7e-m/fpv4-sp/hard/libc.a(lib_a-lock.o)
                0x0000000000005d08                __retarget_lock_close_recursive
 .text.__retarget_lock_acquire
                0x0000000000005d0c        0x4 /home/kaviya/ti/ccsv7/tools/compiler/gcc-arm-none-eabi-6-2017-q1-update/bin/../lib/gcc/arm-none-eabi/6.3.1/../../../../arm-none-eabi/lib/thumb/v7e-m/fpv4-sp/hard/libc.a(lib_a-lock.o)
                0x0000000000005d0c                __retarget_lock_acquire
 .text.__retarget_lock_acquire_recursive
                0x0000000000005d10        0x4 /home/kaviya/ti/ccsv7/tools/compiler/gcc-arm-none-eabi-6-2017-q1-update/bin/../lib/gcc/arm-none-eabi/6.3.1/../../../../arm-none-eabi/lib/thumb/v7e-m/fpv4-sp/hard/libc.a(lib_a-lock.o)
                0x0000000000005d10                __retarget_lock_acquire_recursive
 .text.__retarget_lock_try_acquire
                0x0000000000005d14        0x4 /home/kaviya/ti/ccsv7/tools/compiler/gcc-arm-none-eabi-6-2017-q1-update/bin/../lib/gcc/arm-none-eabi/6.3.1/../../../../arm-none-eabi/lib/thumb/v7e-m/fpv4-sp/hard/libc.a(lib_a-lock.o)
                0x0000000000005d14                __retarget_lock_try_acquire
 .text.__retarget_lock_try_acquire_recursive
                0x0000000000005d18        0x4 /home/kaviya/ti/ccsv7/tools/compiler/gcc-arm-none-eabi-6-2017-q1-update/bin/../lib/gcc/arm-none-eabi/6.3.1/../../../../arm-none-eabi/lib/thumb/v7e-m/fpv4-sp/hard/libc.a(lib_a-lock.o)
                0x0000000000005d18                __retarget_lock_try_acquire_recursive
 .text.__retarget_lock_release
                0x0000000000005d1c        0x4 /home/kaviya/ti/ccsv7/tools/compiler/gcc-arm-none-eabi-6-2017-q1-update/bin/../lib/gcc/arm-none-eabi/6.3.1/../../../../arm-none-eabi/lib/thumb/v7e-m/fpv4-sp/hard/libc.a(lib_a-lock.o)
                0x0000000000005d1c                __retarget_lock_release
 .text.__retarget_lock_release_recursive
                0x0000000000005d20        0x4 /home/kaviya/ti/ccsv7/tools/compiler/gcc-arm-none-eabi-6-2017-q1-update/bin/../lib/gcc/arm-none-eabi/6.3.1/../../../../arm-none-eabi/lib/thumb/v7e-m/fpv4-sp/hard/libc.a(lib_a-lock.o)
                0x0000000000005d20                __retarget_lock_release_recursive
 .text.__register_exitproc
                0x0000000000005d24       0xc4 /home/kaviya/ti/ccsv7/tools/compiler/gcc-arm-none-eabi-6-2017-q1-update/bin/../lib/gcc/arm-none-eabi/6.3.1/../../../../arm-none-eabi/lib/thumb/v7e-m/fpv4-sp/hard/libc.a(lib_a-__atexit.o)
                0x0000000000005d24                __register_exitproc
 .text._exit    0x0000000000005de8        0x8 /home/kaviya/ti/ccsv7/tools/compiler/gcc-arm-none-eabi-6-2017-q1-update/bin/../lib/gcc/arm-none-eabi/6.3.1/../../../../arm-none-eabi/lib/thumb/v7e-m/fpv4-sp/hard/librdimon.a(rdimon-_exit.o)
                0x0000000000005de8                _exit
 .text._kill    0x0000000000005df0       0x20 /home/kaviya/ti/ccsv7/tools/compiler/gcc-arm-none-eabi-6-2017-q1-update/bin/../lib/gcc/arm-none-eabi/6.3.1/../../../../arm-none-eabi/lib/thumb/v7e-m/fpv4-sp/hard/librdimon.a(rdimon-_kill.o)
                0x0000000000005df0                _kill
 .text._ADCIntNumberGet
                0x0000000000005e10       0x54 /home/kaviya/ti/TivaWare_C_Series-2.1.4.178/driverlib/gcc/libdriver.a(adc.o)
 .text.ADCIntRegister
                0x0000000000005e64       0x1a /home/kaviya/ti/TivaWare_C_Series-2.1.4.178/driverlib/gcc/libdriver.a(adc.o)
                0x0000000000005e64                ADCIntRegister
 .text.ADCIntUnregister
                0x0000000000005e7e       0x16 /home/kaviya/ti/TivaWare_C_Series-2.1.4.178/driverlib/gcc/libdriver.a(adc.o)
                0x0000000000005e7e                ADCIntUnregister
 .text.ADCIntDisable
                0x0000000000005e94       0x10 /home/kaviya/ti/TivaWare_C_Series-2.1.4.178/driverlib/gcc/libdriver.a(adc.o)
                0x0000000000005e94                ADCIntDisable
 .text.ADCIntEnable
                0x0000000000005ea4       0x10 /home/kaviya/ti/TivaWare_C_Series-2.1.4.178/driverlib/gcc/libdriver.a(adc.o)
                0x0000000000005ea4                ADCIntEnable
 .text.ADCIntStatus
                0x0000000000005eb4       0x34 /home/kaviya/ti/TivaWare_C_Series-2.1.4.178/driverlib/gcc/libdriver.a(adc.o)
                0x0000000000005eb4                ADCIntStatus
 .text.ADCIntClear
                0x0000000000005ee8        0xa /home/kaviya/ti/TivaWare_C_Series-2.1.4.178/driverlib/gcc/libdriver.a(adc.o)
                0x0000000000005ee8                ADCIntClear
 .text.ADCSequenceEnable
                0x0000000000005ef2        0xe /home/kaviya/ti/TivaWare_C_Series-2.1.4.178/driverlib/gcc/libdriver.a(adc.o)
                0x0000000000005ef2                ADCSequenceEnable
 .text.ADCSequenceDisable
                0x0000000000005f00       0x10 /home/kaviya/ti/TivaWare_C_Series-2.1.4.178/driverlib/gcc/libdriver.a(adc.o)
                0x0000000000005f00                ADCSequenceDisable
 .text.ADCSequenceConfigure
                0x0000000000005f10       0x54 /home/kaviya/ti/TivaWare_C_Series-2.1.4.178/driverlib/gcc/libdriver.a(adc.o)
                0x0000000000005f10                ADCSequenceConfigure
 .text.ADCSequenceStepConfigure
                0x0000000000005f64       0x84 /home/kaviya/ti/TivaWare_C_Series-2.1.4.178/driverlib/gcc/libdriver.a(adc.o)
                0x0000000000005f64                ADCSequenceStepConfigure
 .text.ADCSequenceOverflow
                0x0000000000005fe8        0xc /home/kaviya/ti/TivaWare_C_Series-2.1.4.178/driverlib/gcc/libdriver.a(adc.o)
                0x0000000000005fe8                ADCSequenceOverflow
 .text.ADCSequenceOverflowClear
                0x0000000000005ff4        0xa /home/kaviya/ti/TivaWare_C_Series-2.1.4.178/driverlib/gcc/libdriver.a(adc.o)
                0x0000000000005ff4                ADCSequenceOverflowClear
 .text.ADCSequenceUnderflow
                0x0000000000005ffe        0xc /home/kaviya/ti/TivaWare_C_Series-2.1.4.178/driverlib/gcc/libdriver.a(adc.o)
                0x0000000000005ffe                ADCSequenceUnderflow
 .text.ADCSequenceUnderflowClear
                0x000000000000600a        0xa /home/kaviya/ti/TivaWare_C_Series-2.1.4.178/driverlib/gcc/libdriver.a(adc.o)
                0x000000000000600a                ADCSequenceUnderflowClear
 .text.ADCSequenceDataGet
                0x0000000000006014       0x1e /home/kaviya/ti/TivaWare_C_Series-2.1.4.178/driverlib/gcc/libdriver.a(adc.o)
                0x0000000000006014                ADCSequenceDataGet
 .text.ADCProcessorTrigger
                0x0000000000006032       0x18 /home/kaviya/ti/TivaWare_C_Series-2.1.4.178/driverlib/gcc/libdriver.a(adc.o)
                0x0000000000006032                ADCProcessorTrigger
 *fill*         0x000000000000604a        0x2 
 .text.ADCSoftwareOversampleConfigure
                0x000000000000604c       0x28 /home/kaviya/ti/TivaWare_C_Series-2.1.4.178/driverlib/gcc/libdriver.a(adc.o)
                0x000000000000604c                ADCSoftwareOversampleConfigure
 .text.ADCSoftwareOversampleStepConfigure
                0x0000000000006074       0x8c /home/kaviya/ti/TivaWare_C_Series-2.1.4.178/driverlib/gcc/libdriver.a(adc.o)
                0x0000000000006074                ADCSoftwareOversampleStepConfigure
 .text.ADCSoftwareOversampleDataGet
                0x0000000000006100       0x48 /home/kaviya/ti/TivaWare_C_Series-2.1.4.178/driverlib/gcc/libdriver.a(adc.o)
                0x0000000000006100                ADCSoftwareOversampleDataGet
 .text.ADCHardwareOversampleConfigure
                0x0000000000006148       0x10 /home/kaviya/ti/TivaWare_C_Series-2.1.4.178/driverlib/gcc/libdriver.a(adc.o)
                0x0000000000006148                ADCHardwareOversampleConfigure
 .text.ADCComparatorConfigure
                0x0000000000006158        0xa /home/kaviya/ti/TivaWare_C_Series-2.1.4.178/driverlib/gcc/libdriver.a(adc.o)
                0x0000000000006158                ADCComparatorConfigure
 .text.ADCComparatorRegionSet
                0x0000000000006162        0xe /home/kaviya/ti/TivaWare_C_Series-2.1.4.178/driverlib/gcc/libdriver.a(adc.o)
                0x0000000000006162                ADCComparatorRegionSet
 .text.ADCComparatorReset
                0x0000000000006170       0x1e /home/kaviya/ti/TivaWare_C_Series-2.1.4.178/driverlib/gcc/libdriver.a(adc.o)
                0x0000000000006170                ADCComparatorReset
 .text.ADCComparatorIntDisable
                0x000000000000618e       0x12 /home/kaviya/ti/TivaWare_C_Series-2.1.4.178/driverlib/gcc/libdriver.a(adc.o)
                0x000000000000618e                ADCComparatorIntDisable
 .text.ADCComparatorIntEnable
                0x00000000000061a0       0x10 /home/kaviya/ti/TivaWare_C_Series-2.1.4.178/driverlib/gcc/libdriver.a(adc.o)
                0x00000000000061a0                ADCComparatorIntEnable
 .text.ADCComparatorIntStatus
                0x00000000000061b0        0x4 /home/kaviya/ti/TivaWare_C_Series-2.1.4.178/driverlib/gcc/libdriver.a(adc.o)
                0x00000000000061b0                ADCComparatorIntStatus
 .text.ADCComparatorIntClear
                0x00000000000061b4        0x4 /home/kaviya/ti/TivaWare_C_Series-2.1.4.178/driverlib/gcc/libdriver.a(adc.o)
                0x00000000000061b4                ADCComparatorIntClear
 .text.ADCIntDisableEx
                0x00000000000061b8        0xa /home/kaviya/ti/TivaWare_C_Series-2.1.4.178/driverlib/gcc/libdriver.a(adc.o)
                0x00000000000061b8                ADCIntDisableEx
 .text.ADCIntEnableEx
                0x00000000000061c2        0x8 /home/kaviya/ti/TivaWare_C_Series-2.1.4.178/driverlib/gcc/libdriver.a(adc.o)
                0x00000000000061c2                ADCIntEnableEx
 .text.ADCIntStatusEx
                0x00000000000061ca       0x12 /home/kaviya/ti/TivaWare_C_Series-2.1.4.178/driverlib/gcc/libdriver.a(adc.o)
                0x00000000000061ca                ADCIntStatusEx
 .text.ADCIntClearEx
                0x00000000000061dc        0x4 /home/kaviya/ti/TivaWare_C_Series-2.1.4.178/driverlib/gcc/libdriver.a(adc.o)
                0x00000000000061dc                ADCIntClearEx
 .text.ADCReferenceSet
                0x00000000000061e0        0xc /home/kaviya/ti/TivaWare_C_Series-2.1.4.178/driverlib/gcc/libdriver.a(adc.o)
                0x00000000000061e0                ADCReferenceSet
 .text.ADCReferenceGet
                0x00000000000061ec        0x8 /home/kaviya/ti/TivaWare_C_Series-2.1.4.178/driverlib/gcc/libdriver.a(adc.o)
                0x00000000000061ec                ADCReferenceGet
 .text.ADCPhaseDelaySet
                0x00000000000061f4        0x4 /home/kaviya/ti/TivaWare_C_Series-2.1.4.178/driverlib/gcc/libdriver.a(adc.o)
                0x00000000000061f4                ADCPhaseDelaySet
 .text.ADCPhaseDelayGet
                0x00000000000061f8        0x4 /home/kaviya/ti/TivaWare_C_Series-2.1.4.178/driverlib/gcc/libdriver.a(adc.o)
                0x00000000000061f8                ADCPhaseDelayGet
 .text.ADCSequenceDMAEnable
                0x00000000000061fc       0x10 /home/kaviya/ti/TivaWare_C_Series-2.1.4.178/driverlib/gcc/libdriver.a(adc.o)
                0x00000000000061fc                ADCSequenceDMAEnable
 .text.ADCSequenceDMADisable
                0x000000000000620c       0x12 /home/kaviya/ti/TivaWare_C_Series-2.1.4.178/driverlib/gcc/libdriver.a(adc.o)
                0x000000000000620c                ADCSequenceDMADisable
 .text.ADCBusy  0x000000000000621e        0x8 /home/kaviya/ti/TivaWare_C_Series-2.1.4.178/driverlib/gcc/libdriver.a(adc.o)
                0x000000000000621e                ADCBusy
 .text.ADCClockConfigSet
                0x0000000000006226       0x18 /home/kaviya/ti/TivaWare_C_Series-2.1.4.178/driverlib/gcc/libdriver.a(adc.o)
                0x0000000000006226                ADCClockConfigSet
 .text.ADCClockConfigGet
                0x000000000000623e       0x1e /home/kaviya/ti/TivaWare_C_Series-2.1.4.178/driverlib/gcc/libdriver.a(adc.o)
                0x000000000000623e                ADCClockConfigGet
 .text.FPUEnable
                0x000000000000625c       0x10 /home/kaviya/ti/TivaWare_C_Series-2.1.4.178/driverlib/gcc/libdriver.a(fpu.o)
                0x000000000000625c                FPUEnable
 .text.FPUDisable
                0x000000000000626c       0x10 /home/kaviya/ti/TivaWare_C_Series-2.1.4.178/driverlib/gcc/libdriver.a(fpu.o)
                0x000000000000626c                FPUDisable
 .text.FPUStackingEnable
                0x000000000000627c       0x14 /home/kaviya/ti/TivaWare_C_Series-2.1.4.178/driverlib/gcc/libdriver.a(fpu.o)
                0x000000000000627c                FPUStackingEnable
 .text.FPULazyStackingEnable
                0x0000000000006290       0x10 /home/kaviya/ti/TivaWare_C_Series-2.1.4.178/driverlib/gcc/libdriver.a(fpu.o)
                0x0000000000006290                FPULazyStackingEnable
 .text.FPUStackingDisable
                0x00000000000062a0       0x10 /home/kaviya/ti/TivaWare_C_Series-2.1.4.178/driverlib/gcc/libdriver.a(fpu.o)
                0x00000000000062a0                FPUStackingDisable
 .text.FPUHalfPrecisionModeSet
                0x00000000000062b0       0x14 /home/kaviya/ti/TivaWare_C_Series-2.1.4.178/driverlib/gcc/libdriver.a(fpu.o)
                0x00000000000062b0                FPUHalfPrecisionModeSet
 .text.FPUNaNModeSet
                0x00000000000062c4       0x14 /home/kaviya/ti/TivaWare_C_Series-2.1.4.178/driverlib/gcc/libdriver.a(fpu.o)
                0x00000000000062c4                FPUNaNModeSet
 .text.FPUFlushToZeroModeSet
                0x00000000000062d8       0x14 /home/kaviya/ti/TivaWare_C_Series-2.1.4.178/driverlib/gcc/libdriver.a(fpu.o)
                0x00000000000062d8                FPUFlushToZeroModeSet
 .text.FPURoundingModeSet
                0x00000000000062ec       0x14 /home/kaviya/ti/TivaWare_C_Series-2.1.4.178/driverlib/gcc/libdriver.a(fpu.o)
                0x00000000000062ec                FPURoundingModeSet
 .text._GPIOIntNumberGet
                0x0000000000006300       0x48 /home/kaviya/ti/TivaWare_C_Series-2.1.4.178/driverlib/gcc/libdriver.a(gpio.o)
 .text.GPIODirModeSet
                0x0000000000006348       0x2e /home/kaviya/ti/TivaWare_C_Series-2.1.4.178/driverlib/gcc/libdriver.a(gpio.o)
                0x0000000000006348                GPIODirModeSet
 .text.GPIODirModeGet
                0x0000000000006376       0x24 /home/kaviya/ti/TivaWare_C_Series-2.1.4.178/driverlib/gcc/libdriver.a(gpio.o)
                0x0000000000006376                GPIODirModeGet
 .text.GPIOIntTypeSet
                0x000000000000639a       0x5a /home/kaviya/ti/TivaWare_C_Series-2.1.4.178/driverlib/gcc/libdriver.a(gpio.o)
                0x000000000000639a                GPIOIntTypeSet
 .text.GPIOIntTypeGet
                0x00000000000063f4       0x4a /home/kaviya/ti/TivaWare_C_Series-2.1.4.178/driverlib/gcc/libdriver.a(gpio.o)
                0x00000000000063f4                GPIOIntTypeGet
 .text.GPIOPadConfigSet
                0x000000000000643e      0x130 /home/kaviya/ti/TivaWare_C_Series-2.1.4.178/driverlib/gcc/libdriver.a(gpio.o)
                0x000000000000643e                GPIOPadConfigSet
 .text.GPIOPadConfigGet
                0x000000000000656e       0xc4 /home/kaviya/ti/TivaWare_C_Series-2.1.4.178/driverlib/gcc/libdriver.a(gpio.o)
                0x000000000000656e                GPIOPadConfigGet
 .text.GPIOIntEnable
                0x0000000000006632        0xc /home/kaviya/ti/TivaWare_C_Series-2.1.4.178/driverlib/gcc/libdriver.a(gpio.o)
                0x0000000000006632                GPIOIntEnable
 .text.GPIOIntDisable
                0x000000000000663e        0xe /home/kaviya/ti/TivaWare_C_Series-2.1.4.178/driverlib/gcc/libdriver.a(gpio.o)
                0x000000000000663e                GPIOIntDisable
 .text.GPIOIntStatus
                0x000000000000664c        0xe /home/kaviya/ti/TivaWare_C_Series-2.1.4.178/driverlib/gcc/libdriver.a(gpio.o)
                0x000000000000664c                GPIOIntStatus
 .text.GPIOIntClear
                0x000000000000665a        0x6 /home/kaviya/ti/TivaWare_C_Series-2.1.4.178/driverlib/gcc/libdriver.a(gpio.o)
                0x000000000000665a                GPIOIntClear
 .text.GPIOIntRegister
                0x0000000000006660       0x1a /home/kaviya/ti/TivaWare_C_Series-2.1.4.178/driverlib/gcc/libdriver.a(gpio.o)
                0x0000000000006660                GPIOIntRegister
 .text.GPIOIntUnregister
                0x000000000000667a       0x16 /home/kaviya/ti/TivaWare_C_Series-2.1.4.178/driverlib/gcc/libdriver.a(gpio.o)
                0x000000000000667a                GPIOIntUnregister
 .text.GPIOIntRegisterPin
                0x0000000000006690       0x1e /home/kaviya/ti/TivaWare_C_Series-2.1.4.178/driverlib/gcc/libdriver.a(gpio.o)
                0x0000000000006690                GPIOIntRegisterPin
 .text.GPIOIntUnregisterPin
                0x00000000000066ae       0x1a /home/kaviya/ti/TivaWare_C_Series-2.1.4.178/driverlib/gcc/libdriver.a(gpio.o)
                0x00000000000066ae                GPIOIntUnregisterPin
 .text.GPIOPinRead
                0x00000000000066c8        0x6 /home/kaviya/ti/TivaWare_C_Series-2.1.4.178/driverlib/gcc/libdriver.a(gpio.o)
                0x00000000000066c8                GPIOPinRead
 .text.GPIOPinWrite
                0x00000000000066ce        0x6 /home/kaviya/ti/TivaWare_C_Series-2.1.4.178/driverlib/gcc/libdriver.a(gpio.o)
                0x00000000000066ce                GPIOPinWrite
 .text.GPIOPinTypeADC
                0x00000000000066d4       0x1c /home/kaviya/ti/TivaWare_C_Series-2.1.4.178/driverlib/gcc/libdriver.a(gpio.o)
                0x00000000000066d4                GPIOPinTypeADC
 .text.GPIOPinTypeCAN
                0x00000000000066f0       0x1c /home/kaviya/ti/TivaWare_C_Series-2.1.4.178/driverlib/gcc/libdriver.a(gpio.o)
                0x00000000000066f0                GPIOPinTypeCAN
 .text.GPIOPinTypeComparator
                0x000000000000670c       0x1c /home/kaviya/ti/TivaWare_C_Series-2.1.4.178/driverlib/gcc/libdriver.a(gpio.o)
                0x000000000000670c                GPIOPinTypeComparator
 .text.GPIOPinTypeComparatorOutput
                0x0000000000006728       0x1c /home/kaviya/ti/TivaWare_C_Series-2.1.4.178/driverlib/gcc/libdriver.a(gpio.o)
                0x0000000000006728                GPIOPinTypeComparatorOutput
 .text.GPIOPinTypeDIVSCLK
                0x0000000000006744       0x1c /home/kaviya/ti/TivaWare_C_Series-2.1.4.178/driverlib/gcc/libdriver.a(gpio.o)
                0x0000000000006744                GPIOPinTypeDIVSCLK
 .text.GPIOPinTypeEPI
                0x0000000000006760       0x1c /home/kaviya/ti/TivaWare_C_Series-2.1.4.178/driverlib/gcc/libdriver.a(gpio.o)
                0x0000000000006760                GPIOPinTypeEPI
 .text.GPIOPinTypeEthernetLED
                0x000000000000677c       0x1c /home/kaviya/ti/TivaWare_C_Series-2.1.4.178/driverlib/gcc/libdriver.a(gpio.o)
                0x000000000000677c                GPIOPinTypeEthernetLED
 .text.GPIOPinTypeEthernetMII
                0x0000000000006798       0x1c /home/kaviya/ti/TivaWare_C_Series-2.1.4.178/driverlib/gcc/libdriver.a(gpio.o)
                0x0000000000006798                GPIOPinTypeEthernetMII
 .text.GPIOPinTypeGPIOInput
                0x00000000000067b4       0x1c /home/kaviya/ti/TivaWare_C_Series-2.1.4.178/driverlib/gcc/libdriver.a(gpio.o)
                0x00000000000067b4                GPIOPinTypeGPIOInput
 .text.GPIOPinTypeGPIOOutput
                0x00000000000067d0       0x1c /home/kaviya/ti/TivaWare_C_Series-2.1.4.178/driverlib/gcc/libdriver.a(gpio.o)
                0x00000000000067d0                GPIOPinTypeGPIOOutput
 .text.GPIOPinTypeGPIOOutputOD
                0x00000000000067ec       0x1c /home/kaviya/ti/TivaWare_C_Series-2.1.4.178/driverlib/gcc/libdriver.a(gpio.o)
                0x00000000000067ec                GPIOPinTypeGPIOOutputOD
 .text.GPIOPinTypeHibernateRTCCLK
                0x0000000000006808       0x1c /home/kaviya/ti/TivaWare_C_Series-2.1.4.178/driverlib/gcc/libdriver.a(gpio.o)
                0x0000000000006808                GPIOPinTypeHibernateRTCCLK
 .text.GPIOPinTypeI2C
                0x0000000000006824       0x1c /home/kaviya/ti/TivaWare_C_Series-2.1.4.178/driverlib/gcc/libdriver.a(gpio.o)
                0x0000000000006824                GPIOPinTypeI2C
 .text.GPIOPinTypeI2CSCL
                0x0000000000006840       0x1c /home/kaviya/ti/TivaWare_C_Series-2.1.4.178/driverlib/gcc/libdriver.a(gpio.o)
                0x0000000000006840                GPIOPinTypeI2CSCL
 .text.GPIOPinTypeLCD
                0x000000000000685c       0x1c /home/kaviya/ti/TivaWare_C_Series-2.1.4.178/driverlib/gcc/libdriver.a(gpio.o)
                0x000000000000685c                GPIOPinTypeLCD
 .text.GPIOPinTypeOneWire
                0x0000000000006878       0x1c /home/kaviya/ti/TivaWare_C_Series-2.1.4.178/driverlib/gcc/libdriver.a(gpio.o)
                0x0000000000006878                GPIOPinTypeOneWire
 .text.GPIOPinTypePWM
                0x0000000000006894       0x1c /home/kaviya/ti/TivaWare_C_Series-2.1.4.178/driverlib/gcc/libdriver.a(gpio.o)
                0x0000000000006894                GPIOPinTypePWM
 .text.GPIOPinTypeQEI
                0x00000000000068b0       0x1c /home/kaviya/ti/TivaWare_C_Series-2.1.4.178/driverlib/gcc/libdriver.a(gpio.o)
                0x00000000000068b0                GPIOPinTypeQEI
 .text.GPIOPinTypeSSI
                0x00000000000068cc       0x1c /home/kaviya/ti/TivaWare_C_Series-2.1.4.178/driverlib/gcc/libdriver.a(gpio.o)
                0x00000000000068cc                GPIOPinTypeSSI
 .text.GPIOPinTypeTimer
                0x00000000000068e8       0x1c /home/kaviya/ti/TivaWare_C_Series-2.1.4.178/driverlib/gcc/libdriver.a(gpio.o)
                0x00000000000068e8                GPIOPinTypeTimer
 .text.GPIOPinTypeTrace
                0x0000000000006904       0x1c /home/kaviya/ti/TivaWare_C_Series-2.1.4.178/driverlib/gcc/libdriver.a(gpio.o)
                0x0000000000006904                GPIOPinTypeTrace
 .text.GPIOPinTypeUART
                0x0000000000006920       0x1c /home/kaviya/ti/TivaWare_C_Series-2.1.4.178/driverlib/gcc/libdriver.a(gpio.o)
                0x0000000000006920                GPIOPinTypeUART
 .text.GPIOPinTypeUSBAnalog
                0x000000000000693c       0x1c /home/kaviya/ti/TivaWare_C_Series-2.1.4.178/driverlib/gcc/libdriver.a(gpio.o)
                0x000000000000693c                GPIOPinTypeUSBAnalog
 .text.GPIOPinTypeUSBDigital
                0x0000000000006958       0x1c /home/kaviya/ti/TivaWare_C_Series-2.1.4.178/driverlib/gcc/libdriver.a(gpio.o)
                0x0000000000006958                GPIOPinTypeUSBDigital
 .text.GPIOPinTypeWakeHigh
                0x0000000000006974       0x1e /home/kaviya/ti/TivaWare_C_Series-2.1.4.178/driverlib/gcc/libdriver.a(gpio.o)
                0x0000000000006974                GPIOPinTypeWakeHigh
 .text.GPIOPinTypeWakeLow
                0x0000000000006992       0x1e /home/kaviya/ti/TivaWare_C_Series-2.1.4.178/driverlib/gcc/libdriver.a(gpio.o)
                0x0000000000006992                GPIOPinTypeWakeLow
 .text.GPIOPinWakeStatus
                0x00000000000069b0        0x6 /home/kaviya/ti/TivaWare_C_Series-2.1.4.178/driverlib/gcc/libdriver.a(gpio.o)
                0x00000000000069b0                GPIOPinWakeStatus
 *fill*         0x00000000000069b6        0x2 
 .text.GPIOPinConfigure
                0x00000000000069b8       0x4c /home/kaviya/ti/TivaWare_C_Series-2.1.4.178/driverlib/gcc/libdriver.a(gpio.o)
                0x00000000000069b8                GPIOPinConfigure
 .text.GPIODMATriggerEnable
                0x0000000000006a04        0xc /home/kaviya/ti/TivaWare_C_Series-2.1.4.178/driverlib/gcc/libdriver.a(gpio.o)
                0x0000000000006a04                GPIODMATriggerEnable
 .text.GPIODMATriggerDisable
                0x0000000000006a10        0xe /home/kaviya/ti/TivaWare_C_Series-2.1.4.178/driverlib/gcc/libdriver.a(gpio.o)
                0x0000000000006a10                GPIODMATriggerDisable
 .text.GPIOADCTriggerEnable
                0x0000000000006a1e        0xc /home/kaviya/ti/TivaWare_C_Series-2.1.4.178/driverlib/gcc/libdriver.a(gpio.o)
                0x0000000000006a1e                GPIOADCTriggerEnable
 .text.GPIOADCTriggerDisable
                0x0000000000006a2a        0xe /home/kaviya/ti/TivaWare_C_Series-2.1.4.178/driverlib/gcc/libdriver.a(gpio.o)
                0x0000000000006a2a                GPIOADCTriggerDisable
 .text._IntDefaultHandler
                0x0000000000006a38        0x2 /home/kaviya/ti/TivaWare_C_Series-2.1.4.178/driverlib/gcc/libdriver.a(interrupt.o)
 .text.IntMasterEnable
                0x0000000000006a3a        0xe /home/kaviya/ti/TivaWare_C_Series-2.1.4.178/driverlib/gcc/libdriver.a(interrupt.o)
                0x0000000000006a3a                IntMasterEnable
 .text.IntMasterDisable
                0x0000000000006a48        0xe /home/kaviya/ti/TivaWare_C_Series-2.1.4.178/driverlib/gcc/libdriver.a(interrupt.o)
                0x0000000000006a48                IntMasterDisable
 *fill*         0x0000000000006a56        0x2 
 .text.IntRegister
                0x0000000000006a58       0x34 /home/kaviya/ti/TivaWare_C_Series-2.1.4.178/driverlib/gcc/libdriver.a(interrupt.o)
                0x0000000000006a58                IntRegister
 .text.IntUnregister
                0x0000000000006a8c       0x14 /home/kaviya/ti/TivaWare_C_Series-2.1.4.178/driverlib/gcc/libdriver.a(interrupt.o)
                0x0000000000006a8c                IntUnregister
 .text.IntPriorityGroupingSet
                0x0000000000006aa0       0x1c /home/kaviya/ti/TivaWare_C_Series-2.1.4.178/driverlib/gcc/libdriver.a(interrupt.o)
                0x0000000000006aa0                IntPriorityGroupingSet
 .text.IntPriorityGroupingGet
                0x0000000000006abc       0x24 /home/kaviya/ti/TivaWare_C_Series-2.1.4.178/driverlib/gcc/libdriver.a(interrupt.o)
                0x0000000000006abc                IntPriorityGroupingGet
 .text.IntPrioritySet
                0x0000000000006ae0       0x2c /home/kaviya/ti/TivaWare_C_Series-2.1.4.178/driverlib/gcc/libdriver.a(interrupt.o)
                0x0000000000006ae0                IntPrioritySet
 .text.IntPriorityGet
                0x0000000000006b0c       0x1c /home/kaviya/ti/TivaWare_C_Series-2.1.4.178/driverlib/gcc/libdriver.a(interrupt.o)
                0x0000000000006b0c                IntPriorityGet
 .text.IntEnable
                0x0000000000006b28       0x60 /home/kaviya/ti/TivaWare_C_Series-2.1.4.178/driverlib/gcc/libdriver.a(interrupt.o)
                0x0000000000006b28                IntEnable
 .text.IntDisable
                0x0000000000006b88       0x60 /home/kaviya/ti/TivaWare_C_Series-2.1.4.178/driverlib/gcc/libdriver.a(interrupt.o)
                0x0000000000006b88                IntDisable
 .text.IntIsEnabled
                0x0000000000006be8       0x64 /home/kaviya/ti/TivaWare_C_Series-2.1.4.178/driverlib/gcc/libdriver.a(interrupt.o)
                0x0000000000006be8                IntIsEnabled
 .text.IntPendSet
                0x0000000000006c4c       0x50 /home/kaviya/ti/TivaWare_C_Series-2.1.4.178/driverlib/gcc/libdriver.a(interrupt.o)
                0x0000000000006c4c                IntPendSet
 .text.IntPendClear
                0x0000000000006c9c       0x40 /home/kaviya/ti/TivaWare_C_Series-2.1.4.178/driverlib/gcc/libdriver.a(interrupt.o)
                0x0000000000006c9c                IntPendClear
 .text.IntPriorityMaskSet
                0x0000000000006cdc        0x4 /home/kaviya/ti/TivaWare_C_Series-2.1.4.178/driverlib/gcc/libdriver.a(interrupt.o)
                0x0000000000006cdc                IntPriorityMaskSet
 .text.IntPriorityMaskGet
                0x0000000000006ce0        0x4 /home/kaviya/ti/TivaWare_C_Series-2.1.4.178/driverlib/gcc/libdriver.a(interrupt.o)
                0x0000000000006ce0                IntPriorityMaskGet
 .text.IntTrigger
                0x0000000000006ce4        0xc /home/kaviya/ti/TivaWare_C_Series-2.1.4.178/driverlib/gcc/libdriver.a(interrupt.o)
                0x0000000000006ce4                IntTrigger
 .text._SSIIntNumberGet
                0x0000000000006cf0       0x44 /home/kaviya/ti/TivaWare_C_Series-2.1.4.178/driverlib/gcc/libdriver.a(ssi.o)
 .text.SSIConfigSetExpClk
                0x0000000000006d34       0x3c /home/kaviya/ti/TivaWare_C_Series-2.1.4.178/driverlib/gcc/libdriver.a(ssi.o)
                0x0000000000006d34                SSIConfigSetExpClk
 .text.SSIEnable
                0x0000000000006d70        0xa /home/kaviya/ti/TivaWare_C_Series-2.1.4.178/driverlib/gcc/libdriver.a(ssi.o)
                0x0000000000006d70                SSIEnable
 .text.SSIDisable
                0x0000000000006d7a        0xa /home/kaviya/ti/TivaWare_C_Series-2.1.4.178/driverlib/gcc/libdriver.a(ssi.o)
                0x0000000000006d7a                SSIDisable
 .text.SSIIntRegister
                0x0000000000006d84       0x1a /home/kaviya/ti/TivaWare_C_Series-2.1.4.178/driverlib/gcc/libdriver.a(ssi.o)
                0x0000000000006d84                SSIIntRegister
 .text.SSIIntUnregister
                0x0000000000006d9e       0x16 /home/kaviya/ti/TivaWare_C_Series-2.1.4.178/driverlib/gcc/libdriver.a(ssi.o)
                0x0000000000006d9e                SSIIntUnregister
 .text.SSIIntEnable
                0x0000000000006db4        0x8 /home/kaviya/ti/TivaWare_C_Series-2.1.4.178/driverlib/gcc/libdriver.a(ssi.o)
                0x0000000000006db4                SSIIntEnable
 .text.SSIIntDisable
                0x0000000000006dbc        0xa /home/kaviya/ti/TivaWare_C_Series-2.1.4.178/driverlib/gcc/libdriver.a(ssi.o)
                0x0000000000006dbc                SSIIntDisable
 .text.SSIIntStatus
                0x0000000000006dc6        0xa /home/kaviya/ti/TivaWare_C_Series-2.1.4.178/driverlib/gcc/libdriver.a(ssi.o)
                0x0000000000006dc6                SSIIntStatus
 .text.SSIIntClear
                0x0000000000006dd0        0x4 /home/kaviya/ti/TivaWare_C_Series-2.1.4.178/driverlib/gcc/libdriver.a(ssi.o)
                0x0000000000006dd0                SSIIntClear
 .text.SSIDataPut
                0x0000000000006dd4        0xa /home/kaviya/ti/TivaWare_C_Series-2.1.4.178/driverlib/gcc/libdriver.a(ssi.o)
                0x0000000000006dd4                SSIDataPut
 .text.SSIDataPutNonBlocking
                0x0000000000006dde       0x12 /home/kaviya/ti/TivaWare_C_Series-2.1.4.178/driverlib/gcc/libdriver.a(ssi.o)
                0x0000000000006dde                SSIDataPutNonBlocking
 .text.SSIDataGet
                0x0000000000006df0        0xc /home/kaviya/ti/TivaWare_C_Series-2.1.4.178/driverlib/gcc/libdriver.a(ssi.o)
                0x0000000000006df0                SSIDataGet
 .text.SSIDataGetNonBlocking
                0x0000000000006dfc       0x14 /home/kaviya/ti/TivaWare_C_Series-2.1.4.178/driverlib/gcc/libdriver.a(ssi.o)
                0x0000000000006dfc                SSIDataGetNonBlocking
 .text.SSIDMAEnable
                0x0000000000006e10        0x8 /home/kaviya/ti/TivaWare_C_Series-2.1.4.178/driverlib/gcc/libdriver.a(ssi.o)
                0x0000000000006e10                SSIDMAEnable
 .text.SSIDMADisable
                0x0000000000006e18        0xa /home/kaviya/ti/TivaWare_C_Series-2.1.4.178/driverlib/gcc/libdriver.a(ssi.o)
                0x0000000000006e18                SSIDMADisable
 .text.SSIBusy  0x0000000000006e22        0x8 /home/kaviya/ti/TivaWare_C_Series-2.1.4.178/driverlib/gcc/libdriver.a(ssi.o)
                0x0000000000006e22                SSIBusy
 .text.SSIClockSourceSet
                0x0000000000006e2a        0x6 /home/kaviya/ti/TivaWare_C_Series-2.1.4.178/driverlib/gcc/libdriver.a(ssi.o)
                0x0000000000006e2a                SSIClockSourceSet
 .text.SSIClockSourceGet
                0x0000000000006e30        0x6 /home/kaviya/ti/TivaWare_C_Series-2.1.4.178/driverlib/gcc/libdriver.a(ssi.o)
                0x0000000000006e30                SSIClockSourceGet
 .text.SSIAdvModeSet
                0x0000000000006e36        0xc /home/kaviya/ti/TivaWare_C_Series-2.1.4.178/driverlib/gcc/libdriver.a(ssi.o)
                0x0000000000006e36                SSIAdvModeSet
 .text.SSIAdvDataPutFrameEnd
                0x0000000000006e42       0x12 /home/kaviya/ti/TivaWare_C_Series-2.1.4.178/driverlib/gcc/libdriver.a(ssi.o)
                0x0000000000006e42                SSIAdvDataPutFrameEnd
 .text.SSIAdvDataPutFrameEndNonBlocking
                0x0000000000006e54       0x1a /home/kaviya/ti/TivaWare_C_Series-2.1.4.178/driverlib/gcc/libdriver.a(ssi.o)
                0x0000000000006e54                SSIAdvDataPutFrameEndNonBlocking
 .text.SSIAdvFrameHoldEnable
                0x0000000000006e6e        0xa /home/kaviya/ti/TivaWare_C_Series-2.1.4.178/driverlib/gcc/libdriver.a(ssi.o)
                0x0000000000006e6e                SSIAdvFrameHoldEnable
 .text.SSIAdvFrameHoldDisable
                0x0000000000006e78        0xa /home/kaviya/ti/TivaWare_C_Series-2.1.4.178/driverlib/gcc/libdriver.a(ssi.o)
                0x0000000000006e78                SSIAdvFrameHoldDisable
 *fill*         0x0000000000006e82        0x2 
 .text._SysCtlMemTimingGet
                0x0000000000006e84       0x24 /home/kaviya/ti/TivaWare_C_Series-2.1.4.178/driverlib/gcc/libdriver.a(sysctl.o)
 .text.SysCtlSRAMSizeGet
                0x0000000000006ea8       0x10 /home/kaviya/ti/TivaWare_C_Series-2.1.4.178/driverlib/gcc/libdriver.a(sysctl.o)
                0x0000000000006ea8                SysCtlSRAMSizeGet
 .text.SysCtlFlashSizeGet
                0x0000000000006eb8       0x3c /home/kaviya/ti/TivaWare_C_Series-2.1.4.178/driverlib/gcc/libdriver.a(sysctl.o)
                0x0000000000006eb8                SysCtlFlashSizeGet
 .text.SysCtlFlashSectorSizeGet
                0x0000000000006ef4       0x38 /home/kaviya/ti/TivaWare_C_Series-2.1.4.178/driverlib/gcc/libdriver.a(sysctl.o)
                0x0000000000006ef4                SysCtlFlashSectorSizeGet
 .text.SysCtlPeripheralPresent
                0x0000000000006f2c       0x26 /home/kaviya/ti/TivaWare_C_Series-2.1.4.178/driverlib/gcc/libdriver.a(sysctl.o)
                0x0000000000006f2c                SysCtlPeripheralPresent
 .text.SysCtlPeripheralReady
                0x0000000000006f52       0x26 /home/kaviya/ti/TivaWare_C_Series-2.1.4.178/driverlib/gcc/libdriver.a(sysctl.o)
                0x0000000000006f52                SysCtlPeripheralReady
 .text.SysCtlPeripheralPowerOn
                0x0000000000006f78       0x22 /home/kaviya/ti/TivaWare_C_Series-2.1.4.178/driverlib/gcc/libdriver.a(sysctl.o)
                0x0000000000006f78                SysCtlPeripheralPowerOn
 .text.SysCtlPeripheralPowerOff
                0x0000000000006f9a       0x22 /home/kaviya/ti/TivaWare_C_Series-2.1.4.178/driverlib/gcc/libdriver.a(sysctl.o)
                0x0000000000006f9a                SysCtlPeripheralPowerOff
 .text.SysCtlPeripheralReset
                0x0000000000006fbc       0x3a /home/kaviya/ti/TivaWare_C_Series-2.1.4.178/driverlib/gcc/libdriver.a(sysctl.o)
                0x0000000000006fbc                SysCtlPeripheralReset
 .text.SysCtlPeripheralEnable
                0x0000000000006ff6       0x22 /home/kaviya/ti/TivaWare_C_Series-2.1.4.178/driverlib/gcc/libdriver.a(sysctl.o)
                0x0000000000006ff6                SysCtlPeripheralEnable
 .text.SysCtlPeripheralDisable
                0x0000000000007018       0x22 /home/kaviya/ti/TivaWare_C_Series-2.1.4.178/driverlib/gcc/libdriver.a(sysctl.o)
                0x0000000000007018                SysCtlPeripheralDisable
 .text.SysCtlPeripheralSleepEnable
                0x000000000000703a       0x22 /home/kaviya/ti/TivaWare_C_Series-2.1.4.178/driverlib/gcc/libdriver.a(sysctl.o)
                0x000000000000703a                SysCtlPeripheralSleepEnable
 .text.SysCtlPeripheralSleepDisable
                0x000000000000705c       0x22 /home/kaviya/ti/TivaWare_C_Series-2.1.4.178/driverlib/gcc/libdriver.a(sysctl.o)
                0x000000000000705c                SysCtlPeripheralSleepDisable
 .text.SysCtlPeripheralDeepSleepEnable
                0x000000000000707e       0x22 /home/kaviya/ti/TivaWare_C_Series-2.1.4.178/driverlib/gcc/libdriver.a(sysctl.o)
                0x000000000000707e                SysCtlPeripheralDeepSleepEnable
 .text.SysCtlPeripheralDeepSleepDisable
                0x00000000000070a0       0x22 /home/kaviya/ti/TivaWare_C_Series-2.1.4.178/driverlib/gcc/libdriver.a(sysctl.o)
                0x00000000000070a0                SysCtlPeripheralDeepSleepDisable
 *fill*         0x00000000000070c2        0x2 
 .text.SysCtlPeripheralClockGating
                0x00000000000070c4       0x48 /home/kaviya/ti/TivaWare_C_Series-2.1.4.178/driverlib/gcc/libdriver.a(sysctl.o)
                0x00000000000070c4                SysCtlPeripheralClockGating
 .text.SysCtlIntRegister
                0x000000000000710c       0x14 /home/kaviya/ti/TivaWare_C_Series-2.1.4.178/driverlib/gcc/libdriver.a(sysctl.o)
                0x000000000000710c                SysCtlIntRegister
 .text.SysCtlIntUnregister
                0x0000000000007120       0x12 /home/kaviya/ti/TivaWare_C_Series-2.1.4.178/driverlib/gcc/libdriver.a(sysctl.o)
                0x0000000000007120                SysCtlIntUnregister
 *fill*         0x0000000000007132        0x2 
 .text.SysCtlIntEnable
                0x0000000000007134       0x10 /home/kaviya/ti/TivaWare_C_Series-2.1.4.178/driverlib/gcc/libdriver.a(sysctl.o)
                0x0000000000007134                SysCtlIntEnable
 .text.SysCtlIntDisable
                0x0000000000007144       0x10 /home/kaviya/ti/TivaWare_C_Series-2.1.4.178/driverlib/gcc/libdriver.a(sysctl.o)
                0x0000000000007144                SysCtlIntDisable
 .text.SysCtlIntClear
                0x0000000000007154        0xc /home/kaviya/ti/TivaWare_C_Series-2.1.4.178/driverlib/gcc/libdriver.a(sysctl.o)
                0x0000000000007154                SysCtlIntClear
 .text.SysCtlIntStatus
                0x0000000000007160       0x14 /home/kaviya/ti/TivaWare_C_Series-2.1.4.178/driverlib/gcc/libdriver.a(sysctl.o)
                0x0000000000007160                SysCtlIntStatus
 .text.SysCtlLDOSleepSet
                0x0000000000007174        0xc /home/kaviya/ti/TivaWare_C_Series-2.1.4.178/driverlib/gcc/libdriver.a(sysctl.o)
                0x0000000000007174                SysCtlLDOSleepSet
 .text.SysCtlLDOSleepGet
                0x0000000000007180        0xc /home/kaviya/ti/TivaWare_C_Series-2.1.4.178/driverlib/gcc/libdriver.a(sysctl.o)
                0x0000000000007180                SysCtlLDOSleepGet
 .text.SysCtlLDODeepSleepSet
                0x000000000000718c        0xc /home/kaviya/ti/TivaWare_C_Series-2.1.4.178/driverlib/gcc/libdriver.a(sysctl.o)
                0x000000000000718c                SysCtlLDODeepSleepSet
 .text.SysCtlLDODeepSleepGet
                0x0000000000007198        0xc /home/kaviya/ti/TivaWare_C_Series-2.1.4.178/driverlib/gcc/libdriver.a(sysctl.o)
                0x0000000000007198                SysCtlLDODeepSleepGet
 .text.SysCtlSleepPowerSet
                0x00000000000071a4        0xc /home/kaviya/ti/TivaWare_C_Series-2.1.4.178/driverlib/gcc/libdriver.a(sysctl.o)
                0x00000000000071a4                SysCtlSleepPowerSet
 .text.SysCtlDeepSleepPowerSet
                0x00000000000071b0        0xc /home/kaviya/ti/TivaWare_C_Series-2.1.4.178/driverlib/gcc/libdriver.a(sysctl.o)
                0x00000000000071b0                SysCtlDeepSleepPowerSet
 .text.SysCtlReset
                0x00000000000071bc       0x10 /home/kaviya/ti/TivaWare_C_Series-2.1.4.178/driverlib/gcc/libdriver.a(sysctl.o)
                0x00000000000071bc                SysCtlReset
 .text.SysCtlSleep
                0x00000000000071cc        0x4 /home/kaviya/ti/TivaWare_C_Series-2.1.4.178/driverlib/gcc/libdriver.a(sysctl.o)
                0x00000000000071cc                SysCtlSleep
 .text.SysCtlDeepSleep
                0x00000000000071d0       0x20 /home/kaviya/ti/TivaWare_C_Series-2.1.4.178/driverlib/gcc/libdriver.a(sysctl.o)
                0x00000000000071d0                SysCtlDeepSleep
 .text.SysCtlResetCauseGet
                0x00000000000071f0        0xc /home/kaviya/ti/TivaWare_C_Series-2.1.4.178/driverlib/gcc/libdriver.a(sysctl.o)
                0x00000000000071f0                SysCtlResetCauseGet
 .text.SysCtlResetCauseClear
                0x00000000000071fc       0x10 /home/kaviya/ti/TivaWare_C_Series-2.1.4.178/driverlib/gcc/libdriver.a(sysctl.o)
                0x00000000000071fc                SysCtlResetCauseClear
 .text.SysCtlDelay
                0x000000000000720c        0x8 /home/kaviya/ti/TivaWare_C_Series-2.1.4.178/driverlib/gcc/libdriver.a(sysctl.o)
                0x000000000000720c                SysCtlDelay
 .text.SysCtlMOSCConfigSet
                0x0000000000007214        0xc /home/kaviya/ti/TivaWare_C_Series-2.1.4.178/driverlib/gcc/libdriver.a(sysctl.o)
                0x0000000000007214                SysCtlMOSCConfigSet
 .text.SysCtlPIOSCCalibrate
                0x0000000000007220       0x48 /home/kaviya/ti/TivaWare_C_Series-2.1.4.178/driverlib/gcc/libdriver.a(sysctl.o)
                0x0000000000007220                SysCtlPIOSCCalibrate
 .text.SysCtlResetBehaviorSet
                0x0000000000007268        0xc /home/kaviya/ti/TivaWare_C_Series-2.1.4.178/driverlib/gcc/libdriver.a(sysctl.o)
                0x0000000000007268                SysCtlResetBehaviorSet
 .text.SysCtlResetBehaviorGet
                0x0000000000007274        0xc /home/kaviya/ti/TivaWare_C_Series-2.1.4.178/driverlib/gcc/libdriver.a(sysctl.o)
                0x0000000000007274                SysCtlResetBehaviorGet
 .text.SysCtlClockFreqSet
                0x0000000000007280      0x248 /home/kaviya/ti/TivaWare_C_Series-2.1.4.178/driverlib/gcc/libdriver.a(sysctl.o)
                0x0000000000007280                SysCtlClockFreqSet
 .text.SysCtlClockSet
                0x00000000000074c8      0x11c /home/kaviya/ti/TivaWare_C_Series-2.1.4.178/driverlib/gcc/libdriver.a(sysctl.o)
                0x00000000000074c8                SysCtlClockSet
 .text.SysCtlClockGet
                0x00000000000075e4      0x12c /home/kaviya/ti/TivaWare_C_Series-2.1.4.178/driverlib/gcc/libdriver.a(sysctl.o)
                0x00000000000075e4                SysCtlClockGet
 .text.SysCtlDeepSleepClockSet
                0x0000000000007710        0xc /home/kaviya/ti/TivaWare_C_Series-2.1.4.178/driverlib/gcc/libdriver.a(sysctl.o)
                0x0000000000007710                SysCtlDeepSleepClockSet
 .text.SysCtlDeepSleepClockConfigSet
                0x000000000000771c       0x60 /home/kaviya/ti/TivaWare_C_Series-2.1.4.178/driverlib/gcc/libdriver.a(sysctl.o)
                0x000000000000771c                SysCtlDeepSleepClockConfigSet
 .text.SysCtlPWMClockSet
                0x000000000000777c       0x14 /home/kaviya/ti/TivaWare_C_Series-2.1.4.178/driverlib/gcc/libdriver.a(sysctl.o)
                0x000000000000777c                SysCtlPWMClockSet
 .text.SysCtlPWMClockGet
                0x0000000000007790       0x18 /home/kaviya/ti/TivaWare_C_Series-2.1.4.178/driverlib/gcc/libdriver.a(sysctl.o)
                0x0000000000007790                SysCtlPWMClockGet
 .text.SysCtlGPIOAHBEnable
                0x00000000000077a8       0x18 /home/kaviya/ti/TivaWare_C_Series-2.1.4.178/driverlib/gcc/libdriver.a(sysctl.o)
                0x00000000000077a8                SysCtlGPIOAHBEnable
 .text.SysCtlGPIOAHBDisable
                0x00000000000077c0       0x1c /home/kaviya/ti/TivaWare_C_Series-2.1.4.178/driverlib/gcc/libdriver.a(sysctl.o)
                0x00000000000077c0                SysCtlGPIOAHBDisable
 .text.SysCtlUSBPLLEnable
                0x00000000000077dc       0x10 /home/kaviya/ti/TivaWare_C_Series-2.1.4.178/driverlib/gcc/libdriver.a(sysctl.o)
                0x00000000000077dc                SysCtlUSBPLLEnable
 .text.SysCtlUSBPLLDisable
                0x00000000000077ec       0x10 /home/kaviya/ti/TivaWare_C_Series-2.1.4.178/driverlib/gcc/libdriver.a(sysctl.o)
                0x00000000000077ec                SysCtlUSBPLLDisable
 .text.SysCtlVoltageEventConfig
                0x00000000000077fc        0xc /home/kaviya/ti/TivaWare_C_Series-2.1.4.178/driverlib/gcc/libdriver.a(sysctl.o)
                0x00000000000077fc                SysCtlVoltageEventConfig
 .text.SysCtlVoltageEventStatus
                0x0000000000007808        0xc /home/kaviya/ti/TivaWare_C_Series-2.1.4.178/driverlib/gcc/libdriver.a(sysctl.o)
                0x0000000000007808                SysCtlVoltageEventStatus
 .text.SysCtlVoltageEventClear
                0x0000000000007814       0x10 /home/kaviya/ti/TivaWare_C_Series-2.1.4.178/driverlib/gcc/libdriver.a(sysctl.o)
                0x0000000000007814                SysCtlVoltageEventClear
 .text.SysCtlVCOGet
                0x0000000000007824       0x78 /home/kaviya/ti/TivaWare_C_Series-2.1.4.178/driverlib/gcc/libdriver.a(sysctl.o)
                0x0000000000007824                SysCtlVCOGet
 .text.SysCtlNMIStatus
                0x000000000000789c        0xc /home/kaviya/ti/TivaWare_C_Series-2.1.4.178/driverlib/gcc/libdriver.a(sysctl.o)
                0x000000000000789c                SysCtlNMIStatus
 .text.SysCtlNMIClear
                0x00000000000078a8       0x10 /home/kaviya/ti/TivaWare_C_Series-2.1.4.178/driverlib/gcc/libdriver.a(sysctl.o)
                0x00000000000078a8                SysCtlNMIClear
 .text.SysCtlClockOutConfig
                0x00000000000078b8       0x10 /home/kaviya/ti/TivaWare_C_Series-2.1.4.178/driverlib/gcc/libdriver.a(sysctl.o)
                0x00000000000078b8                SysCtlClockOutConfig
 .text.SysCtlAltClkConfig
                0x00000000000078c8        0xc /home/kaviya/ti/TivaWare_C_Series-2.1.4.178/driverlib/gcc/libdriver.a(sysctl.o)
                0x00000000000078c8                SysCtlAltClkConfig
 .text._TimerIntNumberGet
                0x00000000000078d4       0x50 /home/kaviya/ti/TivaWare_C_Series-2.1.4.178/driverlib/gcc/libdriver.a(timer.o)
 .text.TimerEnable
                0x0000000000007924       0x10 /home/kaviya/ti/TivaWare_C_Series-2.1.4.178/driverlib/gcc/libdriver.a(timer.o)
                0x0000000000007924                TimerEnable
 .text.TimerDisable
                0x0000000000007934       0x10 /home/kaviya/ti/TivaWare_C_Series-2.1.4.178/driverlib/gcc/libdriver.a(timer.o)
                0x0000000000007934                TimerDisable
 .text.TimerConfigure
                0x0000000000007944       0x58 /home/kaviya/ti/TivaWare_C_Series-2.1.4.178/driverlib/gcc/libdriver.a(timer.o)
                0x0000000000007944                TimerConfigure
 .text.TimerControlLevel
                0x000000000000799c       0x1e /home/kaviya/ti/TivaWare_C_Series-2.1.4.178/driverlib/gcc/libdriver.a(timer.o)
                0x000000000000799c                TimerControlLevel
 *fill*         0x00000000000079ba        0x2 
 .text.TimerControlTrigger
                0x00000000000079bc       0x54 /home/kaviya/ti/TivaWare_C_Series-2.1.4.178/driverlib/gcc/libdriver.a(timer.o)
                0x00000000000079bc                TimerControlTrigger
 .text.TimerControlEvent
                0x0000000000007a10       0x14 /home/kaviya/ti/TivaWare_C_Series-2.1.4.178/driverlib/gcc/libdriver.a(timer.o)
                0x0000000000007a10                TimerControlEvent
 .text.TimerControlStall
                0x0000000000007a24       0x1e /home/kaviya/ti/TivaWare_C_Series-2.1.4.178/driverlib/gcc/libdriver.a(timer.o)
                0x0000000000007a24                TimerControlStall
 .text.TimerControlWaitOnTrigger
                0x0000000000007a42       0x2e /home/kaviya/ti/TivaWare_C_Series-2.1.4.178/driverlib/gcc/libdriver.a(timer.o)
                0x0000000000007a42                TimerControlWaitOnTrigger
 .text.TimerRTCEnable
                0x0000000000007a70        0xa /home/kaviya/ti/TivaWare_C_Series-2.1.4.178/driverlib/gcc/libdriver.a(timer.o)
                0x0000000000007a70                TimerRTCEnable
 .text.TimerRTCDisable
                0x0000000000007a7a        0xa /home/kaviya/ti/TivaWare_C_Series-2.1.4.178/driverlib/gcc/libdriver.a(timer.o)
                0x0000000000007a7a                TimerRTCDisable
 .text.TimerClockSourceSet
                0x0000000000007a84        0x6 /home/kaviya/ti/TivaWare_C_Series-2.1.4.178/driverlib/gcc/libdriver.a(timer.o)
                0x0000000000007a84                TimerClockSourceSet
 .text.TimerClockSourceGet
                0x0000000000007a8a        0x6 /home/kaviya/ti/TivaWare_C_Series-2.1.4.178/driverlib/gcc/libdriver.a(timer.o)
                0x0000000000007a8a                TimerClockSourceGet
 .text.TimerPrescaleSet
                0x0000000000007a90       0x12 /home/kaviya/ti/TivaWare_C_Series-2.1.4.178/driverlib/gcc/libdriver.a(timer.o)
                0x0000000000007a90                TimerPrescaleSet
 .text.TimerPrescaleGet
                0x0000000000007aa2        0xa /home/kaviya/ti/TivaWare_C_Series-2.1.4.178/driverlib/gcc/libdriver.a(timer.o)
                0x0000000000007aa2                TimerPrescaleGet
 .text.TimerPrescaleMatchSet
                0x0000000000007aac       0x12 /home/kaviya/ti/TivaWare_C_Series-2.1.4.178/driverlib/gcc/libdriver.a(timer.o)
                0x0000000000007aac                TimerPrescaleMatchSet
 .text.TimerPrescaleMatchGet
                0x0000000000007abe        0xa /home/kaviya/ti/TivaWare_C_Series-2.1.4.178/driverlib/gcc/libdriver.a(timer.o)
                0x0000000000007abe                TimerPrescaleMatchGet
 .text.TimerLoadSet
                0x0000000000007ac8       0x12 /home/kaviya/ti/TivaWare_C_Series-2.1.4.178/driverlib/gcc/libdriver.a(timer.o)
                0x0000000000007ac8                TimerLoadSet
 .text.TimerLoadGet
                0x0000000000007ada        0xa /home/kaviya/ti/TivaWare_C_Series-2.1.4.178/driverlib/gcc/libdriver.a(timer.o)
                0x0000000000007ada                TimerLoadGet
 .text.TimerLoadSet64
                0x0000000000007ae4        0x6 /home/kaviya/ti/TivaWare_C_Series-2.1.4.178/driverlib/gcc/libdriver.a(timer.o)
                0x0000000000007ae4                TimerLoadSet64
 .text.TimerLoadGet64
                0x0000000000007aea       0x18 /home/kaviya/ti/TivaWare_C_Series-2.1.4.178/driverlib/gcc/libdriver.a(timer.o)
                0x0000000000007aea                TimerLoadGet64
 .text.TimerValueGet
                0x0000000000007b02        0xa /home/kaviya/ti/TivaWare_C_Series-2.1.4.178/driverlib/gcc/libdriver.a(timer.o)
                0x0000000000007b02                TimerValueGet
 .text.TimerValueGet64
                0x0000000000007b0c       0x18 /home/kaviya/ti/TivaWare_C_Series-2.1.4.178/driverlib/gcc/libdriver.a(timer.o)
                0x0000000000007b0c                TimerValueGet64
 .text.TimerMatchSet
                0x0000000000007b24       0x12 /home/kaviya/ti/TivaWare_C_Series-2.1.4.178/driverlib/gcc/libdriver.a(timer.o)
                0x0000000000007b24                TimerMatchSet
 .text.TimerMatchGet
                0x0000000000007b36        0xa /home/kaviya/ti/TivaWare_C_Series-2.1.4.178/driverlib/gcc/libdriver.a(timer.o)
                0x0000000000007b36                TimerMatchGet
 .text.TimerMatchSet64
                0x0000000000007b40        0x6 /home/kaviya/ti/TivaWare_C_Series-2.1.4.178/driverlib/gcc/libdriver.a(timer.o)
                0x0000000000007b40                TimerMatchSet64
 .text.TimerMatchGet64
                0x0000000000007b46       0x18 /home/kaviya/ti/TivaWare_C_Series-2.1.4.178/driverlib/gcc/libdriver.a(timer.o)
                0x0000000000007b46                TimerMatchGet64
 .text.TimerIntRegister
                0x0000000000007b5e       0x1a /home/kaviya/ti/TivaWare_C_Series-2.1.4.178/driverlib/gcc/libdriver.a(timer.o)
                0x0000000000007b5e                TimerIntRegister
 .text.TimerIntUnregister
                0x0000000000007b78       0x16 /home/kaviya/ti/TivaWare_C_Series-2.1.4.178/driverlib/gcc/libdriver.a(timer.o)
                0x0000000000007b78                TimerIntUnregister
 .text.TimerIntEnable
                0x0000000000007b8e        0x8 /home/kaviya/ti/TivaWare_C_Series-2.1.4.178/driverlib/gcc/libdriver.a(timer.o)
                0x0000000000007b8e                TimerIntEnable
 .text.TimerIntDisable
                0x0000000000007b96        0xa /home/kaviya/ti/TivaWare_C_Series-2.1.4.178/driverlib/gcc/libdriver.a(timer.o)
                0x0000000000007b96                TimerIntDisable
 .text.TimerIntStatus
                0x0000000000007ba0        0xa /home/kaviya/ti/TivaWare_C_Series-2.1.4.178/driverlib/gcc/libdriver.a(timer.o)
                0x0000000000007ba0                TimerIntStatus
 .text.TimerIntClear
                0x0000000000007baa        0x4 /home/kaviya/ti/TivaWare_C_Series-2.1.4.178/driverlib/gcc/libdriver.a(timer.o)
                0x0000000000007baa                TimerIntClear
 .text.TimerSynchronize
                0x0000000000007bae        0x4 /home/kaviya/ti/TivaWare_C_Series-2.1.4.178/driverlib/gcc/libdriver.a(timer.o)
                0x0000000000007bae                TimerSynchronize
 .text.TimerADCEventSet
                0x0000000000007bb2        0x4 /home/kaviya/ti/TivaWare_C_Series-2.1.4.178/driverlib/gcc/libdriver.a(timer.o)
                0x0000000000007bb2                TimerADCEventSet
 .text.TimerADCEventGet
                0x0000000000007bb6        0x4 /home/kaviya/ti/TivaWare_C_Series-2.1.4.178/driverlib/gcc/libdriver.a(timer.o)
                0x0000000000007bb6                TimerADCEventGet
 .text.TimerDMAEventSet
                0x0000000000007bba        0x4 /home/kaviya/ti/TivaWare_C_Series-2.1.4.178/driverlib/gcc/libdriver.a(timer.o)
                0x0000000000007bba                TimerDMAEventSet
 .text.TimerDMAEventGet
                0x0000000000007bbe        0x4 /home/kaviya/ti/TivaWare_C_Series-2.1.4.178/driverlib/gcc/libdriver.a(timer.o)
                0x0000000000007bbe                TimerDMAEventGet
 .text.TimerUpdateMode
                0x0000000000007bc2       0x26 /home/kaviya/ti/TivaWare_C_Series-2.1.4.178/driverlib/gcc/libdriver.a(timer.o)
                0x0000000000007bc2                TimerUpdateMode
 .text._UARTIntNumberGet
                0x0000000000007be8       0x44 /home/kaviya/ti/TivaWare_C_Series-2.1.4.178/driverlib/gcc/libdriver.a(uart.o)
 .text.UARTParityModeSet
                0x0000000000007c2c        0xc /home/kaviya/ti/TivaWare_C_Series-2.1.4.178/driverlib/gcc/libdriver.a(uart.o)
                0x0000000000007c2c                UARTParityModeSet
 .text.UARTParityModeGet
                0x0000000000007c38        0x8 /home/kaviya/ti/TivaWare_C_Series-2.1.4.178/driverlib/gcc/libdriver.a(uart.o)
                0x0000000000007c38                UARTParityModeGet
 .text.UARTFIFOLevelSet
                0x0000000000007c40        0x6 /home/kaviya/ti/TivaWare_C_Series-2.1.4.178/driverlib/gcc/libdriver.a(uart.o)
                0x0000000000007c40                UARTFIFOLevelSet
 .text.UARTFIFOLevelGet
                0x0000000000007c46       0x10 /home/kaviya/ti/TivaWare_C_Series-2.1.4.178/driverlib/gcc/libdriver.a(uart.o)
                0x0000000000007c46                UARTFIFOLevelGet
 .text.UARTConfigGetExpClk
                0x0000000000007c56       0x28 /home/kaviya/ti/TivaWare_C_Series-2.1.4.178/driverlib/gcc/libdriver.a(uart.o)
                0x0000000000007c56                UARTConfigGetExpClk
 .text.UARTEnable
                0x0000000000007c7e       0x16 /home/kaviya/ti/TivaWare_C_Series-2.1.4.178/driverlib/gcc/libdriver.a(uart.o)
                0x0000000000007c7e                UARTEnable
 .text.UARTDisable
                0x0000000000007c94       0x1c /home/kaviya/ti/TivaWare_C_Series-2.1.4.178/driverlib/gcc/libdriver.a(uart.o)
                0x0000000000007c94                UARTDisable
 .text.UARTConfigSetExpClk
                0x0000000000007cb0       0x48 /home/kaviya/ti/TivaWare_C_Series-2.1.4.178/driverlib/gcc/libdriver.a(uart.o)
                0x0000000000007cb0                UARTConfigSetExpClk
 .text.UARTFIFOEnable
                0x0000000000007cf8        0xa /home/kaviya/ti/TivaWare_C_Series-2.1.4.178/driverlib/gcc/libdriver.a(uart.o)
                0x0000000000007cf8                UARTFIFOEnable
 .text.UARTFIFODisable
                0x0000000000007d02        0xa /home/kaviya/ti/TivaWare_C_Series-2.1.4.178/driverlib/gcc/libdriver.a(uart.o)
                0x0000000000007d02                UARTFIFODisable
 .text.UARTEnableSIR
                0x0000000000007d0c       0x12 /home/kaviya/ti/TivaWare_C_Series-2.1.4.178/driverlib/gcc/libdriver.a(uart.o)
                0x0000000000007d0c                UARTEnableSIR
 .text.UARTDisableSIR
                0x0000000000007d1e        0xa /home/kaviya/ti/TivaWare_C_Series-2.1.4.178/driverlib/gcc/libdriver.a(uart.o)
                0x0000000000007d1e                UARTDisableSIR
 .text.UARTSmartCardEnable
                0x0000000000007d28       0x16 /home/kaviya/ti/TivaWare_C_Series-2.1.4.178/driverlib/gcc/libdriver.a(uart.o)
                0x0000000000007d28                UARTSmartCardEnable
 .text.UARTSmartCardDisable
                0x0000000000007d3e        0xa /home/kaviya/ti/TivaWare_C_Series-2.1.4.178/driverlib/gcc/libdriver.a(uart.o)
                0x0000000000007d3e                UARTSmartCardDisable
 .text.UARTModemControlSet
                0x0000000000007d48        0xc /home/kaviya/ti/TivaWare_C_Series-2.1.4.178/driverlib/gcc/libdriver.a(uart.o)
                0x0000000000007d48                UARTModemControlSet
 .text.UARTModemControlClear
                0x0000000000007d54        0xe /home/kaviya/ti/TivaWare_C_Series-2.1.4.178/driverlib/gcc/libdriver.a(uart.o)
                0x0000000000007d54                UARTModemControlClear
 .text.UARTModemControlGet
                0x0000000000007d62        0x8 /home/kaviya/ti/TivaWare_C_Series-2.1.4.178/driverlib/gcc/libdriver.a(uart.o)
                0x0000000000007d62                UARTModemControlGet
 .text.UARTModemStatusGet
                0x0000000000007d6a        0xa /home/kaviya/ti/TivaWare_C_Series-2.1.4.178/driverlib/gcc/libdriver.a(uart.o)
                0x0000000000007d6a                UARTModemStatusGet
 .text.UARTFlowControlSet
                0x0000000000007d74        0xc /home/kaviya/ti/TivaWare_C_Series-2.1.4.178/driverlib/gcc/libdriver.a(uart.o)
                0x0000000000007d74                UARTFlowControlSet
 .text.UARTFlowControlGet
                0x0000000000007d80        0x8 /home/kaviya/ti/TivaWare_C_Series-2.1.4.178/driverlib/gcc/libdriver.a(uart.o)
                0x0000000000007d80                UARTFlowControlGet
 .text.UARTTxIntModeSet
                0x0000000000007d88        0xc /home/kaviya/ti/TivaWare_C_Series-2.1.4.178/driverlib/gcc/libdriver.a(uart.o)
                0x0000000000007d88                UARTTxIntModeSet
 .text.UARTTxIntModeGet
                0x0000000000007d94        0x8 /home/kaviya/ti/TivaWare_C_Series-2.1.4.178/driverlib/gcc/libdriver.a(uart.o)
                0x0000000000007d94                UARTTxIntModeGet
 .text.UARTCharsAvail
                0x0000000000007d9c        0xc /home/kaviya/ti/TivaWare_C_Series-2.1.4.178/driverlib/gcc/libdriver.a(uart.o)
                0x0000000000007d9c                UARTCharsAvail
 .text.UARTSpaceAvail
                0x0000000000007da8        0xc /home/kaviya/ti/TivaWare_C_Series-2.1.4.178/driverlib/gcc/libdriver.a(uart.o)
                0x0000000000007da8                UARTSpaceAvail
 .text.UARTCharGetNonBlocking
                0x0000000000007db4        0xe /home/kaviya/ti/TivaWare_C_Series-2.1.4.178/driverlib/gcc/libdriver.a(uart.o)
                0x0000000000007db4                UARTCharGetNonBlocking
 .text.UARTCharGet
                0x0000000000007dc2        0xa /home/kaviya/ti/TivaWare_C_Series-2.1.4.178/driverlib/gcc/libdriver.a(uart.o)
                0x0000000000007dc2                UARTCharGet
 .text.UARTCharPutNonBlocking
                0x0000000000007dcc       0x10 /home/kaviya/ti/TivaWare_C_Series-2.1.4.178/driverlib/gcc/libdriver.a(uart.o)
                0x0000000000007dcc                UARTCharPutNonBlocking
 .text.UARTCharPut
                0x0000000000007ddc        0xa /home/kaviya/ti/TivaWare_C_Series-2.1.4.178/driverlib/gcc/libdriver.a(uart.o)
                0x0000000000007ddc                UARTCharPut
 .text.UARTBreakCtl
                0x0000000000007de6       0x16 /home/kaviya/ti/TivaWare_C_Series-2.1.4.178/driverlib/gcc/libdriver.a(uart.o)
                0x0000000000007de6                UARTBreakCtl
 .text.UARTBusy
                0x0000000000007dfc        0x8 /home/kaviya/ti/TivaWare_C_Series-2.1.4.178/driverlib/gcc/libdriver.a(uart.o)
                0x0000000000007dfc                UARTBusy
 .text.UARTIntRegister
                0x0000000000007e04       0x1a /home/kaviya/ti/TivaWare_C_Series-2.1.4.178/driverlib/gcc/libdriver.a(uart.o)
                0x0000000000007e04                UARTIntRegister
 .text.UARTIntUnregister
                0x0000000000007e1e       0x16 /home/kaviya/ti/TivaWare_C_Series-2.1.4.178/driverlib/gcc/libdriver.a(uart.o)
                0x0000000000007e1e                UARTIntUnregister
 .text.UARTIntEnable
                0x0000000000007e34        0x8 /home/kaviya/ti/TivaWare_C_Series-2.1.4.178/driverlib/gcc/libdriver.a(uart.o)
                0x0000000000007e34                UARTIntEnable
 .text.UARTIntDisable
                0x0000000000007e3c        0xa /home/kaviya/ti/TivaWare_C_Series-2.1.4.178/driverlib/gcc/libdriver.a(uart.o)
                0x0000000000007e3c                UARTIntDisable
 .text.UARTIntStatus
                0x0000000000007e46        0xa /home/kaviya/ti/TivaWare_C_Series-2.1.4.178/driverlib/gcc/libdriver.a(uart.o)
                0x0000000000007e46                UARTIntStatus
 .text.UARTIntClear
                0x0000000000007e50        0x4 /home/kaviya/ti/TivaWare_C_Series-2.1.4.178/driverlib/gcc/libdriver.a(uart.o)
                0x0000000000007e50                UARTIntClear
 .text.UARTDMAEnable
                0x0000000000007e54        0x8 /home/kaviya/ti/TivaWare_C_Series-2.1.4.178/driverlib/gcc/libdriver.a(uart.o)
                0x0000000000007e54                UARTDMAEnable
 .text.UARTDMADisable
                0x0000000000007e5c        0xa /home/kaviya/ti/TivaWare_C_Series-2.1.4.178/driverlib/gcc/libdriver.a(uart.o)
                0x0000000000007e5c                UARTDMADisable
 .text.UARTRxErrorGet
                0x0000000000007e66        0x8 /home/kaviya/ti/TivaWare_C_Series-2.1.4.178/driverlib/gcc/libdriver.a(uart.o)
                0x0000000000007e66                UARTRxErrorGet
 .text.UARTRxErrorClear
                0x0000000000007e6e        0x6 /home/kaviya/ti/TivaWare_C_Series-2.1.4.178/driverlib/gcc/libdriver.a(uart.o)
                0x0000000000007e6e                UARTRxErrorClear
 .text.UARTClockSourceSet
                0x0000000000007e74        0x6 /home/kaviya/ti/TivaWare_C_Series-2.1.4.178/driverlib/gcc/libdriver.a(uart.o)
                0x0000000000007e74                UARTClockSourceSet
 .text.UARTClockSourceGet
                0x0000000000007e7a        0x6 /home/kaviya/ti/TivaWare_C_Series-2.1.4.178/driverlib/gcc/libdriver.a(uart.o)
                0x0000000000007e7a                UARTClockSourceGet
 .text.UART9BitEnable
                0x0000000000007e80        0xe /home/kaviya/ti/TivaWare_C_Series-2.1.4.178/driverlib/gcc/libdriver.a(uart.o)
                0x0000000000007e80                UART9BitEnable
 .text.UART9BitDisable
                0x0000000000007e8e        0xe /home/kaviya/ti/TivaWare_C_Series-2.1.4.178/driverlib/gcc/libdriver.a(uart.o)
                0x0000000000007e8e                UART9BitDisable
 .text.UART9BitAddrSet
                0x0000000000007e9c        0xa /home/kaviya/ti/TivaWare_C_Series-2.1.4.178/driverlib/gcc/libdriver.a(uart.o)
                0x0000000000007e9c                UART9BitAddrSet
 .text.UART9BitAddrSend
                0x0000000000007ea6       0x2c /home/kaviya/ti/TivaWare_C_Series-2.1.4.178/driverlib/gcc/libdriver.a(uart.o)
                0x0000000000007ea6                UART9BitAddrSend
 .text.UARTLoopbackEnable
                0x0000000000007ed2        0xa /home/kaviya/ti/TivaWare_C_Series-2.1.4.178/driverlib/gcc/libdriver.a(uart.o)
                0x0000000000007ed2                UARTLoopbackEnable
 .text.CPUcpsid
                0x0000000000007edc        0x8 /home/kaviya/ti/TivaWare_C_Series-2.1.4.178/driverlib/gcc/libdriver.a(cpu.o)
                0x0000000000007edc                CPUcpsid
 .text.CPUprimask
                0x0000000000007ee4        0x6 /home/kaviya/ti/TivaWare_C_Series-2.1.4.178/driverlib/gcc/libdriver.a(cpu.o)
                0x0000000000007ee4                CPUprimask
 .text.CPUcpsie
                0x0000000000007eea        0x8 /home/kaviya/ti/TivaWare_C_Series-2.1.4.178/driverlib/gcc/libdriver.a(cpu.o)
                0x0000000000007eea                CPUcpsie
 .text.CPUwfi   0x0000000000007ef2        0x4 /home/kaviya/ti/TivaWare_C_Series-2.1.4.178/driverlib/gcc/libdriver.a(cpu.o)
                0x0000000000007ef2                CPUwfi
 .text.CPUbasepriSet
                0x0000000000007ef6        0x6 /home/kaviya/ti/TivaWare_C_Series-2.1.4.178/driverlib/gcc/libdriver.a(cpu.o)
                0x0000000000007ef6                CPUbasepriSet
 .text.CPUbasepriGet
                0x0000000000007efc        0x6 /home/kaviya/ti/TivaWare_C_Series-2.1.4.178/driverlib/gcc/libdriver.a(cpu.o)
                0x0000000000007efc                CPUbasepriGet
 *fill*         0x0000000000007f02        0x2 
 .text.GrLibInit
                0x0000000000007f04        0xc /home/kaviya/ti/TivaWare_C_Series-2.1.4.178/grlib/gcc/libgr.a(context.o)
                0x0000000000007f04                GrLibInit
 .text.GrContextInit
                0x0000000000007f10       0x6c /home/kaviya/ti/TivaWare_C_Series-2.1.4.178/grlib/gcc/libgr.a(context.o)
                0x0000000000007f10                GrContextInit
 .text.GrContextClipRegionSet
                0x0000000000007f7c       0x62 /home/kaviya/ti/TivaWare_C_Series-2.1.4.178/grlib/gcc/libgr.a(context.o)
                0x0000000000007f7c                GrContextClipRegionSet
 .text.GrClipCodeGet
                0x0000000000007fde       0x36 /home/kaviya/ti/TivaWare_C_Series-2.1.4.178/grlib/gcc/libgr.a(line.o)
 .text.GrLineDrawH
                0x0000000000008014       0x46 /home/kaviya/ti/TivaWare_C_Series-2.1.4.178/grlib/gcc/libgr.a(line.o)
                0x0000000000008014                GrLineDrawH
 .text.GrLineDrawV
                0x000000000000805a       0x46 /home/kaviya/ti/TivaWare_C_Series-2.1.4.178/grlib/gcc/libgr.a(line.o)
                0x000000000000805a                GrLineDrawV
 .text.GrLineDraw
                0x00000000000080a0      0x176 /home/kaviya/ti/TivaWare_C_Series-2.1.4.178/grlib/gcc/libgr.a(line.o)
                0x00000000000080a0                GrLineDraw
 .text.CircularButtonPaint
                0x0000000000008216      0x15a /home/kaviya/ti/TivaWare_C_Series-2.1.4.178/grlib/gcc/libgr.a(pushbutton.o)
 .text.CircularButtonMsgProc
                0x0000000000008370       0xf2 /home/kaviya/ti/TivaWare_C_Series-2.1.4.178/grlib/gcc/libgr.a(pushbutton.o)
                0x0000000000008370                CircularButtonMsgProc
 .text.RectangularButtonPaint
                0x0000000000008462      0x160 /home/kaviya/ti/TivaWare_C_Series-2.1.4.178/grlib/gcc/libgr.a(pushbutton.o)
 .text.RectangularButtonMsgProc
                0x00000000000085c2      0x10c /home/kaviya/ti/TivaWare_C_Series-2.1.4.178/grlib/gcc/libgr.a(pushbutton.o)
                0x00000000000085c2                RectangularButtonMsgProc
 *fill*         0x00000000000086ce        0x2 
 .text.RectangularButtonInit
                0x00000000000086d0       0x3c /home/kaviya/ti/TivaWare_C_Series-2.1.4.178/grlib/gcc/libgr.a(pushbutton.o)
                0x00000000000086d0                RectangularButtonInit
 .text.CircularButtonInit
                0x000000000000870c       0x40 /home/kaviya/ti/TivaWare_C_Series-2.1.4.178/grlib/gcc/libgr.a(pushbutton.o)
                0x000000000000870c                CircularButtonInit
 .text.GrRectDraw
                0x000000000000874c       0x66 /home/kaviya/ti/TivaWare_C_Series-2.1.4.178/grlib/gcc/libgr.a(rectangle.o)
                0x000000000000874c                GrRectDraw
 .text.GrRectFill
                0x00000000000087b2       0xb8 /home/kaviya/ti/TivaWare_C_Series-2.1.4.178/grlib/gcc/libgr.a(rectangle.o)
                0x00000000000087b2                GrRectFill
 .text.GrRectOverlapCheck
                0x000000000000886a       0x3a /home/kaviya/ti/TivaWare_C_Series-2.1.4.178/grlib/gcc/libgr.a(rectangle.o)
                0x000000000000886a                GrRectOverlapCheck
 .text.GrRectIntersectGet
                0x00000000000088a4       0x70 /home/kaviya/ti/TivaWare_C_Series-2.1.4.178/grlib/gcc/libgr.a(rectangle.o)
                0x00000000000088a4                GrRectIntersectGet
 .text.SliderValueToPosition
                0x0000000000008914       0x96 /home/kaviya/ti/TivaWare_C_Series-2.1.4.178/grlib/gcc/libgr.a(slider.o)
 .text.SliderPaint
                0x00000000000089aa      0x2b2 /home/kaviya/ti/TivaWare_C_Series-2.1.4.178/grlib/gcc/libgr.a(slider.o)
 .text.SliderMsgProc
                0x0000000000008c5c      0x148 /home/kaviya/ti/TivaWare_C_Series-2.1.4.178/grlib/gcc/libgr.a(slider.o)
                0x0000000000008c5c                SliderMsgProc
 .text.SliderInit
                0x0000000000008da4       0x3c /home/kaviya/ti/TivaWare_C_Series-2.1.4.178/grlib/gcc/libgr.a(slider.o)
                0x0000000000008da4                SliderInit
 .text.GrStringDraw
                0x0000000000008de0       0x16 /home/kaviya/ti/TivaWare_C_Series-2.1.4.178/grlib/gcc/libgr.a(string.o)
                0x0000000000008de0                GrStringDraw
 .text.GrStringNextCharGet
                0x0000000000008df6       0x28 /home/kaviya/ti/TivaWare_C_Series-2.1.4.178/grlib/gcc/libgr.a(string.o)
                0x0000000000008df6                GrStringNextCharGet
 .text.GrFontGlyphRender
                0x0000000000008e1e      0x27c /home/kaviya/ti/TivaWare_C_Series-2.1.4.178/grlib/gcc/libgr.a(string.o)
                0x0000000000008e1e                GrFontGlyphRender
 .text.GrFontInfoGet
                0x000000000000909a       0x38 /home/kaviya/ti/TivaWare_C_Series-2.1.4.178/grlib/gcc/libgr.a(string.o)
                0x000000000000909a                GrFontInfoGet
 .text.GrFontBaselineGet
                0x00000000000090d2       0x2c /home/kaviya/ti/TivaWare_C_Series-2.1.4.178/grlib/gcc/libgr.a(string.o)
                0x00000000000090d2                GrFontBaselineGet
 .text.GrFontHeightGet
                0x00000000000090fe       0x2c /home/kaviya/ti/TivaWare_C_Series-2.1.4.178/grlib/gcc/libgr.a(string.o)
                0x00000000000090fe                GrFontHeightGet
 .text.GrFontMaxWidthGet
                0x000000000000912a       0x2c /home/kaviya/ti/TivaWare_C_Series-2.1.4.178/grlib/gcc/libgr.a(string.o)
                0x000000000000912a                GrFontMaxWidthGet
 .text.GrFontGlyphDataGet
                0x0000000000009156       0x90 /home/kaviya/ti/TivaWare_C_Series-2.1.4.178/grlib/gcc/libgr.a(string.o)
                0x0000000000009156                GrFontGlyphDataGet
 .text.GrDefaultStringRenderer
                0x00000000000091e6       0xb8 /home/kaviya/ti/TivaWare_C_Series-2.1.4.178/grlib/gcc/libgr.a(string.o)
                0x00000000000091e6                GrDefaultStringRenderer
 .text.GrStringWidthGet
                0x000000000000929e       0x6a /home/kaviya/ti/TivaWare_C_Series-2.1.4.178/grlib/gcc/libgr.a(string.o)
                0x000000000000929e                GrStringWidthGet
 .text.GrFontCodepageGet
                0x0000000000009308       0x26 /home/kaviya/ti/TivaWare_C_Series-2.1.4.178/grlib/gcc/libgr.a(string.o)
                0x0000000000009308                GrFontCodepageGet
 .text.UpdateContextCharMapping
                0x000000000000932e       0x44 /home/kaviya/ti/TivaWare_C_Series-2.1.4.178/grlib/gcc/libgr.a(string.o)
 .text.GrFontNumBlocksGet
                0x0000000000009372       0x26 /home/kaviya/ti/TivaWare_C_Series-2.1.4.178/grlib/gcc/libgr.a(string.o)
                0x0000000000009372                GrFontNumBlocksGet
 .text.GrFontBlockCodepointsGet
                0x0000000000009398       0x5c /home/kaviya/ti/TivaWare_C_Series-2.1.4.178/grlib/gcc/libgr.a(string.o)
                0x0000000000009398                GrFontBlockCodepointsGet
 .text.GrCodepageMapTableSet
                0x00000000000093f4        0xa /home/kaviya/ti/TivaWare_C_Series-2.1.4.178/grlib/gcc/libgr.a(string.o)
                0x00000000000093f4                GrCodepageMapTableSet
 .text.GrStringCodepageSet
                0x00000000000093fe        0x6 /home/kaviya/ti/TivaWare_C_Series-2.1.4.178/grlib/gcc/libgr.a(string.o)
                0x00000000000093fe                GrStringCodepageSet
 .text.GrContextFontSet
                0x0000000000009404        0x6 /home/kaviya/ti/TivaWare_C_Series-2.1.4.178/grlib/gcc/libgr.a(string.o)
                0x0000000000009404                GrContextFontSet
 *fill*         0x000000000000940a        0x2 
 .text.GrStringTableSet
                0x000000000000940c       0x3c /home/kaviya/ti/TivaWare_C_Series-2.1.4.178/grlib/gcc/libgr.a(string.o)
                0x000000000000940c                GrStringTableSet
 .text.GrStringLanguageSet
                0x0000000000009448       0x38 /home/kaviya/ti/TivaWare_C_Series-2.1.4.178/grlib/gcc/libgr.a(string.o)
                0x0000000000009448                GrStringLanguageSet
 .text.GrStringGet
                0x0000000000009480      0x258 /home/kaviya/ti/TivaWare_C_Series-2.1.4.178/grlib/gcc/libgr.a(string.o)
                0x0000000000009480                GrStringGet
 .text.WidgetIsInTree
                0x00000000000096d8       0x26 /home/kaviya/ti/TivaWare_C_Series-2.1.4.178/grlib/gcc/libgr.a(widget.o)
 .text.WidgetDefaultMsgProc
                0x00000000000096fe        0x4 /home/kaviya/ti/TivaWare_C_Series-2.1.4.178/grlib/gcc/libgr.a(widget.o)
                0x00000000000096fe                WidgetDefaultMsgProc
 .text.WidgetMutexInit
                0x0000000000009702        0x6 /home/kaviya/ti/TivaWare_C_Series-2.1.4.178/grlib/gcc/libgr.a(widget.o)
                0x0000000000009702                WidgetMutexInit
 .text.WidgetMutexGet
                0x0000000000009708       0x14 /home/kaviya/ti/TivaWare_C_Series-2.1.4.178/grlib/gcc/libgr.a(widget.o)
                0x0000000000009708                WidgetMutexGet
 .text.WidgetMutexPut
                0x000000000000971c        0x6 /home/kaviya/ti/TivaWare_C_Series-2.1.4.178/grlib/gcc/libgr.a(widget.o)
                0x000000000000971c                WidgetMutexPut
 .text.WidgetAdd
                0x0000000000009722       0x1e /home/kaviya/ti/TivaWare_C_Series-2.1.4.178/grlib/gcc/libgr.a(widget.o)
                0x0000000000009722                WidgetAdd
 .text.WidgetRemove
                0x0000000000009740       0x4c /home/kaviya/ti/TivaWare_C_Series-2.1.4.178/grlib/gcc/libgr.a(widget.o)
                0x0000000000009740                WidgetRemove
 .text.WidgetMessageSendPreOrder
                0x000000000000978c       0x58 /home/kaviya/ti/TivaWare_C_Series-2.1.4.178/grlib/gcc/libgr.a(widget.o)
                0x000000000000978c                WidgetMessageSendPreOrder
 .text.WidgetMessageSendPostOrder
                0x00000000000097e4       0x98 /home/kaviya/ti/TivaWare_C_Series-2.1.4.178/grlib/gcc/libgr.a(widget.o)
                0x00000000000097e4                WidgetMessageSendPostOrder
 .text.WidgetMessageQueueAdd
                0x000000000000987c       0xd4 /home/kaviya/ti/TivaWare_C_Series-2.1.4.178/grlib/gcc/libgr.a(widget.o)
                0x000000000000987c                WidgetMessageQueueAdd
 .text.WidgetMessageQueueProcess
                0x0000000000009950       0x54 /home/kaviya/ti/TivaWare_C_Series-2.1.4.178/grlib/gcc/libgr.a(widget.o)
                0x0000000000009950                WidgetMessageQueueProcess
 .text.WidgetPointerMessage
                0x00000000000099a4       0x20 /home/kaviya/ti/TivaWare_C_Series-2.1.4.178/grlib/gcc/libgr.a(widget.o)
                0x00000000000099a4                WidgetPointerMessage
 .text.GrMapUTF16_Unicode
                0x00000000000099c4       0x84 /home/kaviya/ti/TivaWare_C_Series-2.1.4.178/grlib/gcc/libgr.a(charmap.o)
 .text.GrMapISO8859_1_Unicode
                0x0000000000009a48        0x8 /home/kaviya/ti/TivaWare_C_Series-2.1.4.178/grlib/gcc/libgr.a(charmap.o)
                0x0000000000009a48                GrMapISO8859_1_Unicode
 .text.GrMapISO8859_2_Unicode
                0x0000000000009a50       0x18 /home/kaviya/ti/TivaWare_C_Series-2.1.4.178/grlib/gcc/libgr.a(charmap.o)
                0x0000000000009a50                GrMapISO8859_2_Unicode
 .text.GrMapISO8859_3_Unicode
                0x0000000000009a68       0x18 /home/kaviya/ti/TivaWare_C_Series-2.1.4.178/grlib/gcc/libgr.a(charmap.o)
                0x0000000000009a68                GrMapISO8859_3_Unicode
 .text.GrMapISO8859_4_Unicode
                0x0000000000009a80       0x18 /home/kaviya/ti/TivaWare_C_Series-2.1.4.178/grlib/gcc/libgr.a(charmap.o)
                0x0000000000009a80                GrMapISO8859_4_Unicode
 .text.GrMapISO8859_5_Unicode
                0x0000000000009a98       0x10 /home/kaviya/ti/TivaWare_C_Series-2.1.4.178/grlib/gcc/libgr.a(charmap.o)
                0x0000000000009a98                GrMapISO8859_5_Unicode
 .text.GrMapISO8859_6_Unicode
                0x0000000000009aa8       0x14 /home/kaviya/ti/TivaWare_C_Series-2.1.4.178/grlib/gcc/libgr.a(charmap.o)
                0x0000000000009aa8                GrMapISO8859_6_Unicode
 .text.GrMapISO8859_7_Unicode
                0x0000000000009abc       0x24 /home/kaviya/ti/TivaWare_C_Series-2.1.4.178/grlib/gcc/libgr.a(charmap.o)
                0x0000000000009abc                GrMapISO8859_7_Unicode
 .text.GrMapISO8859_8_Unicode
                0x0000000000009ae0       0x26 /home/kaviya/ti/TivaWare_C_Series-2.1.4.178/grlib/gcc/libgr.a(charmap.o)
                0x0000000000009ae0                GrMapISO8859_8_Unicode
 .text.GrMapISO8859_9_Unicode
                0x0000000000009b06       0x46 /home/kaviya/ti/TivaWare_C_Series-2.1.4.178/grlib/gcc/libgr.a(charmap.o)
                0x0000000000009b06                GrMapISO8859_9_Unicode
 .text.GrMapISO8859_10_Unicode
                0x0000000000009b4c       0x18 /home/kaviya/ti/TivaWare_C_Series-2.1.4.178/grlib/gcc/libgr.a(charmap.o)
                0x0000000000009b4c                GrMapISO8859_10_Unicode
 .text.GrMapISO8859_11_Unicode
                0x0000000000009b64       0x10 /home/kaviya/ti/TivaWare_C_Series-2.1.4.178/grlib/gcc/libgr.a(charmap.o)
                0x0000000000009b64                GrMapISO8859_11_Unicode
 .text.GrMapISO8859_13_Unicode
                0x0000000000009b74       0x18 /home/kaviya/ti/TivaWare_C_Series-2.1.4.178/grlib/gcc/libgr.a(charmap.o)
                0x0000000000009b74                GrMapISO8859_13_Unicode
 .text.GrMapISO8859_14_Unicode
                0x0000000000009b8c       0x58 /home/kaviya/ti/TivaWare_C_Series-2.1.4.178/grlib/gcc/libgr.a(charmap.o)
                0x0000000000009b8c                GrMapISO8859_14_Unicode
 .text.GrMapISO8859_15_Unicode
                0x0000000000009be4       0x5a /home/kaviya/ti/TivaWare_C_Series-2.1.4.178/grlib/gcc/libgr.a(charmap.o)
                0x0000000000009be4                GrMapISO8859_15_Unicode
 *fill*         0x0000000000009c3e        0x2 
 .text.GrMapISO8859_16_Unicode
                0x0000000000009c40       0x18 /home/kaviya/ti/TivaWare_C_Series-2.1.4.178/grlib/gcc/libgr.a(charmap.o)
                0x0000000000009c40                GrMapISO8859_16_Unicode
 .text.GrMapUTF8_Unicode
                0x0000000000009c58       0x7c /home/kaviya/ti/TivaWare_C_Series-2.1.4.178/grlib/gcc/libgr.a(charmap.o)
                0x0000000000009c58                GrMapUTF8_Unicode
 .text.GrMapUTF16LE_Unicode
                0x0000000000009cd4        0x6 /home/kaviya/ti/TivaWare_C_Series-2.1.4.178/grlib/gcc/libgr.a(charmap.o)
                0x0000000000009cd4                GrMapUTF16LE_Unicode
 .text.GrMapUTF16BE_Unicode
                0x0000000000009cda        0x6 /home/kaviya/ti/TivaWare_C_Series-2.1.4.178/grlib/gcc/libgr.a(charmap.o)
                0x0000000000009cda                GrMapUTF16BE_Unicode
 .text.GrMapUnicode_Unicode
                0x0000000000009ce0       0x22 /home/kaviya/ti/TivaWare_C_Series-2.1.4.178/grlib/gcc/libgr.a(charmap.o)
                0x0000000000009ce0                GrMapUnicode_Unicode
 *fill*         0x0000000000009d02        0x2 
 .text.GrMapWIN1250_Unicode
                0x0000000000009d04       0x18 /home/kaviya/ti/TivaWare_C_Series-2.1.4.178/grlib/gcc/libgr.a(charmap.o)
                0x0000000000009d04                GrMapWIN1250_Unicode
 .text.GrMapWIN1251_Unicode
                0x0000000000009d1c       0x28 /home/kaviya/ti/TivaWare_C_Series-2.1.4.178/grlib/gcc/libgr.a(charmap.o)
                0x0000000000009d1c                GrMapWIN1251_Unicode
 .text.GrMapWIN1252_Unicode
                0x0000000000009d44       0x1c /home/kaviya/ti/TivaWare_C_Series-2.1.4.178/grlib/gcc/libgr.a(charmap.o)
                0x0000000000009d44                GrMapWIN1252_Unicode
 .text.GrMapWIN1253_Unicode
                0x0000000000009d60       0x28 /home/kaviya/ti/TivaWare_C_Series-2.1.4.178/grlib/gcc/libgr.a(charmap.o)
                0x0000000000009d60                GrMapWIN1253_Unicode
 .text.GrMapWIN1254_Unicode
                0x0000000000009d88       0x24 /home/kaviya/ti/TivaWare_C_Series-2.1.4.178/grlib/gcc/libgr.a(charmap.o)
                0x0000000000009d88                GrMapWIN1254_Unicode
 .text.GrCircleDraw
                0x0000000000009dac      0x1da /home/kaviya/ti/TivaWare_C_Series-2.1.4.178/grlib/gcc/libgr.a(circle.o)
                0x0000000000009dac                GrCircleDraw
 .text.GrCircleFill
                0x0000000000009f86      0x11e /home/kaviya/ti/TivaWare_C_Series-2.1.4.178/grlib/gcc/libgr.a(circle.o)
                0x0000000000009f86                GrCircleFill
 .text.PixelTransparentDraw
                0x000000000000a0a4      0x272 /home/kaviya/ti/TivaWare_C_Series-2.1.4.178/grlib/gcc/libgr.a(image.o)
 *fill*         0x000000000000a316        0x2 
 .text.InternalImageDraw
                0x000000000000a318      0x3a8 /home/kaviya/ti/TivaWare_C_Series-2.1.4.178/grlib/gcc/libgr.a(image.o)
 .text.GrTransparentImageDraw
                0x000000000000a6c0       0x10 /home/kaviya/ti/TivaWare_C_Series-2.1.4.178/grlib/gcc/libgr.a(image.o)
                0x000000000000a6c0                GrTransparentImageDraw
 .text.GrImageDraw
                0x000000000000a6d0        0xe /home/kaviya/ti/TivaWare_C_Series-2.1.4.178/grlib/gcc/libgr.a(image.o)
                0x000000000000a6d0                GrImageDraw
                0x000000000000a6e0                . = ALIGN (0x4)
 *fill*         0x000000000000a6de        0x2 
 *(.ctors)
                0x000000000000a6e0                . = ALIGN (0x4)
 *(.dtors)
                0x000000000000a6e0                . = ALIGN (0x4)
                0x000000000000a6e0                __init_array_start = .
 *(.init_array*)
 .init_array    0x000000000000a6e0        0x4 /home/kaviya/ti/ccsv7/tools/compiler/gcc-arm-none-eabi-6-2017-q1-update/bin/../lib/gcc/arm-none-eabi/6.3.1/thumb/v7e-m/fpv4-sp/hard/crtbegin.o
 .init_array.00000
                0x000000000000a6e4        0x4 /home/kaviya/ti/ccsv7/tools/compiler/gcc-arm-none-eabi-6-2017-q1-update/bin/../lib/gcc/arm-none-eabi/6.3.1/../../../../arm-none-eabi/lib/thumb/v7e-m/fpv4-sp/hard/libc.a(lib_a-__call_atexit.o)
                0x000000000000a6e8                __init_array_end = .
 *(.init)
 .init          0x000000000000a6e8        0x4 /home/kaviya/ti/ccsv7/tools/compiler/gcc-arm-none-eabi-6-2017-q1-update/bin/../lib/gcc/arm-none-eabi/6.3.1/thumb/v7e-m/fpv4-sp/hard/crti.o
                0x000000000000a6e8                _init
 .init          0x000000000000a6ec        0x8 /home/kaviya/ti/ccsv7/tools/compiler/gcc-arm-none-eabi-6-2017-q1-update/bin/../lib/gcc/arm-none-eabi/6.3.1/thumb/v7e-m/fpv4-sp/hard/crtn.o
 *(.fini*)
 .fini          0x000000000000a6f4        0x4 /home/kaviya/ti/ccsv7/tools/compiler/gcc-arm-none-eabi-6-2017-q1-update/bin/../lib/gcc/arm-none-eabi/6.3.1/thumb/v7e-m/fpv4-sp/hard/crti.o
                0x000000000000a6f4                _fini
 .fini_array    0x000000000000a6f8        0x4 /home/kaviya/ti/ccsv7/tools/compiler/gcc-arm-none-eabi-6-2017-q1-update/bin/../lib/gcc/arm-none-eabi/6.3.1/thumb/v7e-m/fpv4-sp/hard/crtbegin.o
 .fini          0x000000000000a6fc        0x8 /home/kaviya/ti/ccsv7/tools/compiler/gcc-arm-none-eabi-6-2017-q1-update/bin/../lib/gcc/arm-none-eabi/6.3.1/thumb/v7e-m/fpv4-sp/hard/crtn.o
                [!provide]                        PROVIDE (__etext, .)
                [!provide]                        PROVIDE (_etext, .)
                [!provide]                        PROVIDE (etext, .)

.glue_7         0x000000000000a704        0x0
 .glue_7        0x000000000000a704        0x0 linker stubs

.glue_7t        0x000000000000a704        0x0
 .glue_7t       0x000000000000a704        0x0 linker stubs

.vfp11_veneer   0x000000000000a704        0x0
 .vfp11_veneer  0x000000000000a704        0x0 linker stubs

.v4_bx          0x000000000000a704        0x0
 .v4_bx         0x000000000000a704        0x0 linker stubs

.iplt           0x000000000000a704        0x0
 .iplt          0x000000000000a704        0x0 /home/kaviya/ti/ccsv7/tools/compiler/gcc-arm-none-eabi-6-2017-q1-update/bin/../lib/gcc/arm-none-eabi/6.3.1/thumb/v7e-m/fpv4-sp/hard/crtbegin.o

.rodata         0x000000000000a704     0x52b8
 *(.rodata)
 .rodata        0x000000000000a704       0x2e ./LCD.o
 *fill*         0x000000000000a732        0x2 
 .rodata        0x000000000000a734       0x22 ./LCD_stairs.o
 *fill*         0x000000000000a756        0x2 
 .rodata        0x000000000000a758       0x1e ./UART.o
 *fill*         0x000000000000a776        0x2 
 .rodata        0x000000000000a778       0x1e ./touch_isr.o
 *fill*         0x000000000000a796        0x2 
 .rodata        0x000000000000a798       0x1a ./ustdlib.o
 *(.rodata*)
 *fill*         0x000000000000a7b2        0x2 
 .rodata.g_sKentec320x240x16_SSD2119
                0x000000000000a7b4       0x28 ./Kentec320x240x16_ssd2119_spi.o
                0x000000000000a7b4                g_sKentec320x240x16_SSD2119
 .rodata.g_pcHex
                0x000000000000a7dc        0x4 ./UART.o
 .rodata.g_pui8Logo
                0x000000000000a7e0      0x230 ./images.o
                0x000000000000a7e0                g_pui8Logo
 .rodata.g_pui8LightOff
                0x000000000000aa10       0xf5 ./images.o
                0x000000000000aa10                g_pui8LightOff
 *fill*         0x000000000000ab05        0x3 
 .rodata.g_pui8LightOn
                0x000000000000ab08       0xe6 ./images.o
                0x000000000000ab08                g_pui8LightOn
 *fill*         0x000000000000abee        0x2 
 .rodata.g_pui8Blue50x50
                0x000000000000abf0      0x210 ./images.o
                0x000000000000abf0                g_pui8Blue50x50
 .rodata.g_pui8Blue50x50Press
                0x000000000000ae00      0x20e ./images.o
                0x000000000000ae00                g_pui8Blue50x50Press
 *fill*         0x000000000000b00e        0x2 
 .rodata.g_pui8GettingHotter28x148
                0x000000000000b010      0x705 ./images.o
                0x000000000000b010                g_pui8GettingHotter28x148
 *fill*         0x000000000000b715        0x3 
 .rodata.g_pui8GettingHotter28x148Mono
                0x000000000000b718      0x3ad ./images.o
                0x000000000000b718                g_pui8GettingHotter28x148Mono
 *fill*         0x000000000000bac5        0x3 
 .rodata.g_pui8GreenSlider195x37
                0x000000000000bac8      0x826 ./images.o
                0x000000000000bac8                g_pui8GreenSlider195x37
 *fill*         0x000000000000c2ee        0x2 
 .rodata.g_pui8RedSlider195x37
                0x000000000000c2f0      0x83d ./images.o
                0x000000000000c2f0                g_pui8RedSlider195x37
 *fill*         0x000000000000cb2d        0x3 
 .rodata.g_pi32TouchParameters
                0x000000000000cb30       0x1c ./touch.o
                0x000000000000cb30                g_pi32TouchParameters
 .rodata.g_pcHex
                0x000000000000cb4c        0x4 ./ustdlib.o
 .rodata.g_psDaysToMonth
                0x000000000000cb50       0x30 ./ustdlib.o
 .rodata.g_pfExponents
                0x000000000000cb80       0x18 ./ustdlib.o
 .rodata._global_impure_ptr
                0x000000000000cb98        0x4 /home/kaviya/ti/ccsv7/tools/compiler/gcc-arm-none-eabi-6-2017-q1-update/bin/../lib/gcc/arm-none-eabi/6.3.1/../../../../arm-none-eabi/lib/thumb/v7e-m/fpv4-sp/hard/libc.a(lib_a-impure.o)
                0x000000000000cb98                _global_impure_ptr
 .rodata.__utoa.str1.4
                0x000000000000cb9c       0x28 /home/kaviya/ti/ccsv7/tools/compiler/gcc-arm-none-eabi-6-2017-q1-update/bin/../lib/gcc/arm-none-eabi/6.3.1/../../../../arm-none-eabi/lib/thumb/v7e-m/fpv4-sp/hard/libc.a(lib_a-utoa.o)
                                         0x25 (size before relaxing)
 .rodata.g_ppui32GPIOIntMapSnowflake
                0x000000000000cbc4       0xd8 /home/kaviya/ti/TivaWare_C_Series-2.1.4.178/driverlib/gcc/libdriver.a(gpio.o)
 .rodata.g_pui32GPIOBaseAddrs
                0x000000000000cc9c       0x90 /home/kaviya/ti/TivaWare_C_Series-2.1.4.178/driverlib/gcc/libdriver.a(gpio.o)
 .rodata.g_ppui32GPIOIntMapBlizzard
                0x000000000000cd2c       0xc0 /home/kaviya/ti/TivaWare_C_Series-2.1.4.178/driverlib/gcc/libdriver.a(gpio.o)
 .rodata.g_pui32Priority
                0x000000000000cdec       0x20 /home/kaviya/ti/TivaWare_C_Series-2.1.4.178/driverlib/gcc/libdriver.a(interrupt.o)
 .rodata.g_pui32Dii16Regs
                0x000000000000ce0c       0x14 /home/kaviya/ti/TivaWare_C_Series-2.1.4.178/driverlib/gcc/libdriver.a(interrupt.o)
 .rodata.g_pui32PendRegs
                0x000000000000ce20       0x14 /home/kaviya/ti/TivaWare_C_Series-2.1.4.178/driverlib/gcc/libdriver.a(interrupt.o)
 .rodata.g_pui32Regs
                0x000000000000ce34       0x9c /home/kaviya/ti/TivaWare_C_Series-2.1.4.178/driverlib/gcc/libdriver.a(interrupt.o)
 .rodata.g_pui32EnRegs
                0x000000000000ced0       0x14 /home/kaviya/ti/TivaWare_C_Series-2.1.4.178/driverlib/gcc/libdriver.a(interrupt.o)
 .rodata.g_pui32UnpendRegs
                0x000000000000cee4       0x14 /home/kaviya/ti/TivaWare_C_Series-2.1.4.178/driverlib/gcc/libdriver.a(interrupt.o)
 .rodata.g_ppui32SSIIntMap
                0x000000000000cef8       0x20 /home/kaviya/ti/TivaWare_C_Series-2.1.4.178/driverlib/gcc/libdriver.a(ssi.o)
 .rodata.g_ppui32SSIIntMapSnowflake
                0x000000000000cf18       0x20 /home/kaviya/ti/TivaWare_C_Series-2.1.4.178/driverlib/gcc/libdriver.a(ssi.o)
 .rodata.g_pppui32XTALtoVCO
                0x000000000000cf38      0x1b0 /home/kaviya/ti/TivaWare_C_Series-2.1.4.178/driverlib/gcc/libdriver.a(sysctl.o)
 .rodata.g_pui32VCOFrequencies
                0x000000000000d0e8        0x8 /home/kaviya/ti/TivaWare_C_Series-2.1.4.178/driverlib/gcc/libdriver.a(sysctl.o)
 .rodata.g_sXTALtoMEMTIM
                0x000000000000d0f0       0x30 /home/kaviya/ti/TivaWare_C_Series-2.1.4.178/driverlib/gcc/libdriver.a(sysctl.o)
 .rodata.g_pui32Xtals
                0x000000000000d120       0x6c /home/kaviya/ti/TivaWare_C_Series-2.1.4.178/driverlib/gcc/libdriver.a(sysctl.o)
 .rodata.g_ppui32TimerIntMapSnowflake
                0x000000000000d18c       0x40 /home/kaviya/ti/TivaWare_C_Series-2.1.4.178/driverlib/gcc/libdriver.a(timer.o)
 .rodata.g_ppui32TimerIntMap
                0x000000000000d1cc       0x60 /home/kaviya/ti/TivaWare_C_Series-2.1.4.178/driverlib/gcc/libdriver.a(timer.o)
 .rodata.g_ppui32UARTIntMap
                0x000000000000d22c       0x40 /home/kaviya/ti/TivaWare_C_Series-2.1.4.178/driverlib/gcc/libdriver.a(uart.o)
 .rodata.g_ppui32UARTIntMapSnowflake
                0x000000000000d26c       0x40 /home/kaviya/ti/TivaWare_C_Series-2.1.4.178/driverlib/gcc/libdriver.a(uart.o)
 .rodata.g_psDefaultCodePointMapTable
                0x000000000000d2ac       0x10 /home/kaviya/ti/TivaWare_C_Series-2.1.4.178/grlib/gcc/libgr.a(context.o)
                0x000000000000d2ac                g_psDefaultCodePointMapTable
 .rodata.g_sFontCm12
                0x000000000000d2bc       0xc8 /home/kaviya/ti/TivaWare_C_Series-2.1.4.178/grlib/gcc/libgr.a(fontcm12.o)
                0x000000000000d2bc                g_sFontCm12
 .rodata.g_pui8Cm12Data
                0x000000000000d384      0x55f /home/kaviya/ti/TivaWare_C_Series-2.1.4.178/grlib/gcc/libgr.a(fontcm12.o)
 *fill*         0x000000000000d8e3        0x1 
 .rodata.g_sFontCm14
                0x000000000000d8e4       0xc8 /home/kaviya/ti/TivaWare_C_Series-2.1.4.178/grlib/gcc/libgr.a(fontcm14.o)
                0x000000000000d8e4                g_sFontCm14
 .rodata.g_pui8Cm14Data
                0x000000000000d9ac      0x65a /home/kaviya/ti/TivaWare_C_Series-2.1.4.178/grlib/gcc/libgr.a(fontcm14.o)
 *fill*         0x000000000000e006        0x2 
 .rodata.g_sFontCm16
                0x000000000000e008       0xc8 /home/kaviya/ti/TivaWare_C_Series-2.1.4.178/grlib/gcc/libgr.a(fontcm16.o)
                0x000000000000e008                g_sFontCm16
 .rodata.g_pui8Cm16Data
                0x000000000000e0d0      0x759 /home/kaviya/ti/TivaWare_C_Series-2.1.4.178/grlib/gcc/libgr.a(fontcm16.o)
 .rodata.g_pui8Cm20Data
                0x000000000000e829      0x95e /home/kaviya/ti/TivaWare_C_Series-2.1.4.178/grlib/gcc/libgr.a(fontcm20.o)
 *fill*         0x000000000000f187        0x1 
 .rodata.g_sFontCm20
                0x000000000000f188       0xc8 /home/kaviya/ti/TivaWare_C_Series-2.1.4.178/grlib/gcc/libgr.a(fontcm20.o)
                0x000000000000f188                g_sFontCm20
 .rodata.g_pui16ISO8859_2_Unicode
                0x000000000000f250       0xbe /home/kaviya/ti/TivaWare_C_Series-2.1.4.178/grlib/gcc/libgr.a(charmap.o)
                0x000000000000f250                g_pui16ISO8859_2_Unicode
 .rodata.g_pui16ISO8859_13_Unicode
                0x000000000000f30e       0xbe /home/kaviya/ti/TivaWare_C_Series-2.1.4.178/grlib/gcc/libgr.a(charmap.o)
                0x000000000000f30e                g_pui16ISO8859_13_Unicode
 .rodata.g_pui16WIN1250_Unicode
                0x000000000000f3cc      0x100 /home/kaviya/ti/TivaWare_C_Series-2.1.4.178/grlib/gcc/libgr.a(charmap.o)
                0x000000000000f3cc                g_pui16WIN1250_Unicode
 .rodata.g_pui16ISO8859_7_Unicode
                0x000000000000f4cc       0x3a /home/kaviya/ti/TivaWare_C_Series-2.1.4.178/grlib/gcc/libgr.a(charmap.o)
                0x000000000000f4cc                g_pui16ISO8859_7_Unicode
 .rodata.g_pui16WIN1253_Unicode
                0x000000000000f506       0x80 /home/kaviya/ti/TivaWare_C_Series-2.1.4.178/grlib/gcc/libgr.a(charmap.o)
                0x000000000000f506                g_pui16WIN1253_Unicode
 .rodata.g_pui16WIN1252_Unicode
                0x000000000000f586       0x40 /home/kaviya/ti/TivaWare_C_Series-2.1.4.178/grlib/gcc/libgr.a(charmap.o)
                0x000000000000f586                g_pui16WIN1252_Unicode
 .rodata.g_pui16ISO8859_3_Unicode
                0x000000000000f5c6       0xbe /home/kaviya/ti/TivaWare_C_Series-2.1.4.178/grlib/gcc/libgr.a(charmap.o)
                0x000000000000f5c6                g_pui16ISO8859_3_Unicode
 .rodata.g_pui16ISO8859_16_Unicode
                0x000000000000f684       0xbe /home/kaviya/ti/TivaWare_C_Series-2.1.4.178/grlib/gcc/libgr.a(charmap.o)
                0x000000000000f684                g_pui16ISO8859_16_Unicode
 .rodata.g_pui16WIN1251_Unicode
                0x000000000000f742       0x80 /home/kaviya/ti/TivaWare_C_Series-2.1.4.178/grlib/gcc/libgr.a(charmap.o)
                0x000000000000f742                g_pui16WIN1251_Unicode
 .rodata.g_pui16ISO8859_14_Unicode
                0x000000000000f7c2       0x3e /home/kaviya/ti/TivaWare_C_Series-2.1.4.178/grlib/gcc/libgr.a(charmap.o)
                0x000000000000f7c2                g_pui16ISO8859_14_Unicode
 .rodata.g_pui16ISO8859_10_Unicode
                0x000000000000f800       0xbe /home/kaviya/ti/TivaWare_C_Series-2.1.4.178/grlib/gcc/libgr.a(charmap.o)
                0x000000000000f800                g_pui16ISO8859_10_Unicode
 .rodata.g_pui16WIN1254_Unicode
                0x000000000000f8be       0x40 /home/kaviya/ti/TivaWare_C_Series-2.1.4.178/grlib/gcc/libgr.a(charmap.o)
                0x000000000000f8be                g_pui16WIN1254_Unicode
 .rodata.g_pui16ISO8859_4_Unicode
                0x000000000000f8fe       0xbe /home/kaviya/ti/TivaWare_C_Series-2.1.4.178/grlib/gcc/libgr.a(charmap.o)
                0x000000000000f8fe                g_pui16ISO8859_4_Unicode

.eh_frame       0x000000000000f9bc        0x4
 .eh_frame      0x000000000000f9bc        0x0 /home/kaviya/ti/ccsv7/tools/compiler/gcc-arm-none-eabi-6-2017-q1-update/bin/../lib/gcc/arm-none-eabi/6.3.1/thumb/v7e-m/fpv4-sp/hard/crtbegin.o
 .eh_frame      0x000000000000f9bc        0x4 /home/kaviya/ti/ccsv7/tools/compiler/gcc-arm-none-eabi-6-2017-q1-update/bin/../lib/gcc/arm-none-eabi/6.3.1/thumb/v7e-m/fpv4-sp/hard/crtend.o

.data           0x0000000020000000     0x274c load address 0x000000000000f9c0
                0x000000000000f9c0                __data_load__ = LOADADDR (.data)
                0x0000000020000000                __data_start__ = .
 *(.data)
 .data          0x0000000020000000        0x0 /home/kaviya/ti/ccsv7/tools/compiler/gcc-arm-none-eabi-6-2017-q1-update/bin/../lib/gcc/arm-none-eabi/6.3.1/thumb/v7e-m/fpv4-sp/hard/crti.o
 .data          0x0000000020000000        0x4 /home/kaviya/ti/ccsv7/tools/compiler/gcc-arm-none-eabi-6-2017-q1-update/bin/../lib/gcc/arm-none-eabi/6.3.1/thumb/v7e-m/fpv4-sp/hard/crtbegin.o
                0x0000000020000000                __dso_handle
 .data          0x0000000020000004        0x0 /home/kaviya/ti/ccsv7/tools/compiler/gcc-arm-none-eabi-6-2017-q1-update/bin/../lib/gcc/arm-none-eabi/6.3.1/../../../../arm-none-eabi/lib/thumb/v7e-m/fpv4-sp/hard/crt0.o
 .data          0x0000000020000004        0x0 ./Kentec320x240x16_ssd2119_spi.o
 .data          0x0000000020000004        0x0 ./LCD.o
 .data          0x0000000020000004        0x0 ./LCD_stairs.o
 .data          0x0000000020000004        0x0 ./UART.o
 .data          0x0000000020000004        0x0 ./images.o
 .data          0x0000000020000004        0x0 ./tm4c123gh6pm_startup_ccs_gcc.o
 .data          0x0000000020000004        0x0 ./touch.o
 .data          0x0000000020000004        0x0 ./touch_isr.o
 .data          0x0000000020000004        0x0 ./ustdlib.o
 .data          0x0000000020000004        0x0 /home/kaviya/ti/ccsv7/tools/compiler/gcc-arm-none-eabi-6-2017-q1-update/bin/../lib/gcc/arm-none-eabi/6.3.1/../../../../arm-none-eabi/lib/thumb/v7e-m/fpv4-sp/hard/libc.a(lib_a-exit.o)
 .data          0x0000000020000004        0x0 /home/kaviya/ti/ccsv7/tools/compiler/gcc-arm-none-eabi-6-2017-q1-update/bin/../lib/gcc/arm-none-eabi/6.3.1/../../../../arm-none-eabi/lib/thumb/v7e-m/fpv4-sp/hard/libc.a(lib_a-impure.o)
 .data          0x0000000020000004        0x0 /home/kaviya/ti/ccsv7/tools/compiler/gcc-arm-none-eabi-6-2017-q1-update/bin/../lib/gcc/arm-none-eabi/6.3.1/../../../../arm-none-eabi/lib/thumb/v7e-m/fpv4-sp/hard/libc.a(lib_a-init.o)
 .data          0x0000000020000004        0x0 /home/kaviya/ti/ccsv7/tools/compiler/gcc-arm-none-eabi-6-2017-q1-update/bin/../lib/gcc/arm-none-eabi/6.3.1/../../../../arm-none-eabi/lib/thumb/v7e-m/fpv4-sp/hard/libc.a(lib_a-itoa.o)
 .data          0x0000000020000004        0x0 /home/kaviya/ti/ccsv7/tools/compiler/gcc-arm-none-eabi-6-2017-q1-update/bin/../lib/gcc/arm-none-eabi/6.3.1/../../../../arm-none-eabi/lib/thumb/v7e-m/fpv4-sp/hard/libc.a(lib_a-memset.o)
 .data          0x0000000020000004        0x0 /home/kaviya/ti/ccsv7/tools/compiler/gcc-arm-none-eabi-6-2017-q1-update/bin/../lib/gcc/arm-none-eabi/6.3.1/../../../../arm-none-eabi/lib/thumb/v7e-m/fpv4-sp/hard/libc.a(lib_a-strlen.o)
 .data          0x0000000020000004        0x0 /home/kaviya/ti/ccsv7/tools/compiler/gcc-arm-none-eabi-6-2017-q1-update/bin/../lib/gcc/arm-none-eabi/6.3.1/../../../../arm-none-eabi/lib/thumb/v7e-m/fpv4-sp/hard/libc.a(lib_a-utoa.o)
 .data          0x0000000020000004        0x0 /home/kaviya/ti/ccsv7/tools/compiler/gcc-arm-none-eabi-6-2017-q1-update/bin/../lib/gcc/arm-none-eabi/6.3.1/../../../../arm-none-eabi/lib/thumb/v7e-m/fpv4-sp/hard/libc.a(lib_a-__call_atexit.o)
 .data          0x0000000020000004        0x0 /home/kaviya/ti/ccsv7/tools/compiler/gcc-arm-none-eabi-6-2017-q1-update/bin/../lib/gcc/arm-none-eabi/6.3.1/../../../../arm-none-eabi/lib/thumb/v7e-m/fpv4-sp/hard/libc.a(lib_a-atexit.o)
 .data          0x0000000020000004        0x0 /home/kaviya/ti/ccsv7/tools/compiler/gcc-arm-none-eabi-6-2017-q1-update/bin/../lib/gcc/arm-none-eabi/6.3.1/../../../../arm-none-eabi/lib/thumb/v7e-m/fpv4-sp/hard/libc.a(lib_a-fini.o)
 .data          0x0000000020000004        0x0 /home/kaviya/ti/ccsv7/tools/compiler/gcc-arm-none-eabi-6-2017-q1-update/bin/../lib/gcc/arm-none-eabi/6.3.1/../../../../arm-none-eabi/lib/thumb/v7e-m/fpv4-sp/hard/libc.a(lib_a-lock.o)
 .data          0x0000000020000004        0x0 /home/kaviya/ti/ccsv7/tools/compiler/gcc-arm-none-eabi-6-2017-q1-update/bin/../lib/gcc/arm-none-eabi/6.3.1/../../../../arm-none-eabi/lib/thumb/v7e-m/fpv4-sp/hard/libc.a(lib_a-__atexit.o)
 .data          0x0000000020000004        0x0 /home/kaviya/ti/ccsv7/tools/compiler/gcc-arm-none-eabi-6-2017-q1-update/bin/../lib/gcc/arm-none-eabi/6.3.1/../../../../arm-none-eabi/lib/thumb/v7e-m/fpv4-sp/hard/librdimon.a(rdimon-_exit.o)
 .data          0x0000000020000004        0x0 /home/kaviya/ti/ccsv7/tools/compiler/gcc-arm-none-eabi-6-2017-q1-update/bin/../lib/gcc/arm-none-eabi/6.3.1/../../../../arm-none-eabi/lib/thumb/v7e-m/fpv4-sp/hard/librdimon.a(rdimon-_kill.o)
 .data          0x0000000020000004        0x0 /home/kaviya/ti/TivaWare_C_Series-2.1.4.178/driverlib/gcc/libdriver.a(adc.o)
 .data          0x0000000020000004        0x0 /home/kaviya/ti/TivaWare_C_Series-2.1.4.178/driverlib/gcc/libdriver.a(fpu.o)
 .data          0x0000000020000004        0x0 /home/kaviya/ti/TivaWare_C_Series-2.1.4.178/driverlib/gcc/libdriver.a(gpio.o)
 .data          0x0000000020000004        0x0 /home/kaviya/ti/TivaWare_C_Series-2.1.4.178/driverlib/gcc/libdriver.a(interrupt.o)
 .data          0x0000000020000004        0x0 /home/kaviya/ti/TivaWare_C_Series-2.1.4.178/driverlib/gcc/libdriver.a(ssi.o)
 .data          0x0000000020000004        0x0 /home/kaviya/ti/TivaWare_C_Series-2.1.4.178/driverlib/gcc/libdriver.a(sysctl.o)
 .data          0x0000000020000004        0x0 /home/kaviya/ti/TivaWare_C_Series-2.1.4.178/driverlib/gcc/libdriver.a(timer.o)
 .data          0x0000000020000004        0x0 /home/kaviya/ti/TivaWare_C_Series-2.1.4.178/driverlib/gcc/libdriver.a(uart.o)
 .data          0x0000000020000004        0x0 /home/kaviya/ti/TivaWare_C_Series-2.1.4.178/driverlib/gcc/libdriver.a(cpu.o)
 .data          0x0000000020000004        0x0 /home/kaviya/ti/TivaWare_C_Series-2.1.4.178/grlib/gcc/libgr.a(context.o)
 .data          0x0000000020000004        0x0 /home/kaviya/ti/TivaWare_C_Series-2.1.4.178/grlib/gcc/libgr.a(fontcm12.o)
 .data          0x0000000020000004        0x0 /home/kaviya/ti/TivaWare_C_Series-2.1.4.178/grlib/gcc/libgr.a(fontcm14.o)
 .data          0x0000000020000004        0x0 /home/kaviya/ti/TivaWare_C_Series-2.1.4.178/grlib/gcc/libgr.a(fontcm16.o)
 .data          0x0000000020000004        0x0 /home/kaviya/ti/TivaWare_C_Series-2.1.4.178/grlib/gcc/libgr.a(fontcm20.o)
 .data          0x0000000020000004        0x0 /home/kaviya/ti/TivaWare_C_Series-2.1.4.178/grlib/gcc/libgr.a(line.o)
 .data          0x0000000020000004        0x0 /home/kaviya/ti/TivaWare_C_Series-2.1.4.178/grlib/gcc/libgr.a(pushbutton.o)
 .data          0x0000000020000004        0x0 /home/kaviya/ti/TivaWare_C_Series-2.1.4.178/grlib/gcc/libgr.a(rectangle.o)
 .data          0x0000000020000004        0x0 /home/kaviya/ti/TivaWare_C_Series-2.1.4.178/grlib/gcc/libgr.a(slider.o)
 .data          0x0000000020000004        0x0 /home/kaviya/ti/TivaWare_C_Series-2.1.4.178/grlib/gcc/libgr.a(string.o)
 .data          0x0000000020000004        0x0 /home/kaviya/ti/TivaWare_C_Series-2.1.4.178/grlib/gcc/libgr.a(widget.o)
 .data          0x0000000020000004        0x0 /home/kaviya/ti/TivaWare_C_Series-2.1.4.178/grlib/gcc/libgr.a(charmap.o)
 .data          0x0000000020000004        0x0 /home/kaviya/ti/TivaWare_C_Series-2.1.4.178/grlib/gcc/libgr.a(circle.o)
 .data          0x0000000020000004        0x0 /home/kaviya/ti/TivaWare_C_Series-2.1.4.178/grlib/gcc/libgr.a(image.o)
 .data          0x0000000020000004        0x0 /home/kaviya/ti/ccsv7/tools/compiler/gcc-arm-none-eabi-6-2017-q1-update/bin/../lib/gcc/arm-none-eabi/6.3.1/thumb/v7e-m/fpv4-sp/hard/libgcc.a(_arm_addsubdf3.o)
 .data          0x0000000020000004        0x0 /home/kaviya/ti/ccsv7/tools/compiler/gcc-arm-none-eabi-6-2017-q1-update/bin/../lib/gcc/arm-none-eabi/6.3.1/thumb/v7e-m/fpv4-sp/hard/libgcc.a(_arm_muldivdf3.o)
 .data          0x0000000020000004        0x0 /home/kaviya/ti/ccsv7/tools/compiler/gcc-arm-none-eabi-6-2017-q1-update/bin/../lib/gcc/arm-none-eabi/6.3.1/thumb/v7e-m/fpv4-sp/hard/libgcc.a(_arm_cmpdf2.o)
 .data          0x0000000020000004        0x0 /home/kaviya/ti/ccsv7/tools/compiler/gcc-arm-none-eabi-6-2017-q1-update/bin/../lib/gcc/arm-none-eabi/6.3.1/thumb/v7e-m/fpv4-sp/hard/libgcc.a(_arm_fixdfsi.o)
 .data          0x0000000020000004        0x0 /home/kaviya/ti/ccsv7/tools/compiler/gcc-arm-none-eabi-6-2017-q1-update/bin/../lib/gcc/arm-none-eabi/6.3.1/thumb/v7e-m/fpv4-sp/hard/crtend.o
 .data          0x0000000020000004        0x0 /home/kaviya/ti/ccsv7/tools/compiler/gcc-arm-none-eabi-6-2017-q1-update/bin/../lib/gcc/arm-none-eabi/6.3.1/thumb/v7e-m/fpv4-sp/hard/crtn.o
 *(.data*)
 .data.print_right
                0x0000000020000004        0x4 ./LCD.o
                0x0000000020000004                print_right
 .data.print_right_ch2
                0x0000000020000008        0x4 ./LCD.o
                0x0000000020000008                print_right_ch2
 .data.prev_step
                0x000000002000000c        0x4 ./LCD.o
                0x000000002000000c                prev_step
 .data.prev_step_ch2
                0x0000000020000010        0x4 ./LCD.o
                0x0000000020000010                prev_step_ch2
 .data.time_interval
                0x0000000020000014        0x4 ./LCD.o
                0x0000000020000014                time_interval
 .data.data1    0x0000000020000018        0x4 ./LCD_stairs.o
                0x0000000020000018                data1
 .data.data2    0x000000002000001c        0x4 ./LCD_stairs.o
                0x000000002000001c                data2
 .data.temp_set
                0x0000000020000020        0x4 ./UART.o
                0x0000000020000020                temp_set
 .data.g_i16TouchMin
                0x0000000020000024        0x2 ./touch.o
                0x0000000020000024                g_i16TouchMin
 *fill*         0x0000000020000026        0x2 
 .data.time_interval_step
                0x0000000020000028       0x14 ./touch_isr.o
                0x0000000020000028                time_interval_step
 .data.print_interval_step
                0x000000002000003c       0x14 ./touch_isr.o
                0x000000002000003c                print_interval_step
 .data.time_print_flag
                0x0000000020000050        0x1 ./touch_isr.o
                0x0000000020000050                time_print_flag
 .data.time_print_flag_ch2
                0x0000000020000051        0x1 ./touch_isr.o
                0x0000000020000051                time_print_flag_ch2
 *fill*         0x0000000020000052        0x2 
 .data.step     0x0000000020000054        0x4 ./touch_isr.o
                0x0000000020000054                step
 .data.increase
                0x0000000020000058       0x50 ./touch_isr.o
                0x0000000020000058                increase
 .data.decrease
                0x00000000200000a8       0x50 ./touch_isr.o
                0x00000000200000a8                decrease
 .data.new      0x00000000200000f8       0x50 ./touch_isr.o
                0x00000000200000f8                new
 .data.start    0x0000000020000148       0x50 ./touch_isr.o
                0x0000000020000148                start
 .data.plus     0x0000000020000198       0x50 ./touch_isr.o
                0x0000000020000198                plus
 .data.minus    0x00000000200001e8       0x50 ./touch_isr.o
                0x00000000200001e8                minus
 .data.move_slider_ch1
                0x0000000020000238       0x5c ./touch_isr.o
                0x0000000020000238                move_slider_ch1
 .data.move_slider_ch2
                0x0000000020000294       0x5c ./touch_isr.o
                0x0000000020000294                move_slider_ch2
 .data.pre_value
                0x00000000200002f0        0x4 ./touch_isr.o
                0x00000000200002f0                pre_value
 .data.pre_value_ch2
                0x00000000200002f4        0x4 ./touch_isr.o
                0x00000000200002f4                pre_value_ch2
 .data.g_iRandomSeed
                0x00000000200002f8        0x4 ./ustdlib.o
 .data._impure_ptr
                0x00000000200002fc        0x4 /home/kaviya/ti/ccsv7/tools/compiler/gcc-arm-none-eabi-6-2017-q1-update/bin/../lib/gcc/arm-none-eabi/6.3.1/../../../../arm-none-eabi/lib/thumb/v7e-m/fpv4-sp/hard/libc.a(lib_a-impure.o)
                0x00000000200002fc                _impure_ptr
 .data.impure_data
                0x0000000020000300      0x428 /home/kaviya/ti/ccsv7/tools/compiler/gcc-arm-none-eabi-6-2017-q1-update/bin/../lib/gcc/arm-none-eabi/6.3.1/../../../../arm-none-eabi/lib/thumb/v7e-m/fpv4-sp/hard/libc.a(lib_a-impure.o)
 .data.__atexit_recursive_mutex
                0x0000000020000728        0x4 /home/kaviya/ti/ccsv7/tools/compiler/gcc-arm-none-eabi-6-2017-q1-update/bin/../lib/gcc/arm-none-eabi/6.3.1/../../../../arm-none-eabi/lib/thumb/v7e-m/fpv4-sp/hard/libc.a(lib_a-__call_atexit.o)
                0x0000000020000728                __atexit_recursive_mutex
 .data.g_sRoot  0x000000002000072c       0x20 /home/kaviya/ti/TivaWare_C_Series-2.1.4.178/grlib/gcc/libgr.a(widget.o)
                0x000000002000072c                g_sRoot
                0x000000002000074c                . = ALIGN (0x4)
                0x000000002000074c                SUT1_data = .
                0x000000002000174c                . = (. + 0x1000)
 *fill*         0x000000002000074c     0x1000 
                0x000000002000174c                SUT2_data = .
                0x000000002000274c                . = (. + 0x1000)
 *fill*         0x000000002000174c     0x1000 
                0x000000002000274c                __data_end__ = .

.jcr            0x000000002000274c        0x4 load address 0x000000000001210c
 .jcr           0x000000002000274c        0x0 /home/kaviya/ti/ccsv7/tools/compiler/gcc-arm-none-eabi-6-2017-q1-update/bin/../lib/gcc/arm-none-eabi/6.3.1/thumb/v7e-m/fpv4-sp/hard/crtbegin.o
 .jcr           0x000000002000274c        0x4 /home/kaviya/ti/ccsv7/tools/compiler/gcc-arm-none-eabi-6-2017-q1-update/bin/../lib/gcc/arm-none-eabi/6.3.1/thumb/v7e-m/fpv4-sp/hard/crtend.o

.igot.plt       0x0000000020002750        0x0 load address 0x0000000000012110
 .igot.plt      0x0000000020002750        0x0 /home/kaviya/ti/ccsv7/tools/compiler/gcc-arm-none-eabi-6-2017-q1-update/bin/../lib/gcc/arm-none-eabi/6.3.1/thumb/v7e-m/fpv4-sp/hard/crtbegin.o

vtable          0x0000000020002800      0x400 load address 0x0000000000012110
                [!provide]                        PROVIDE (__start_vtable, .)
 vtable         0x0000000020002800      0x400 /home/kaviya/ti/TivaWare_C_Series-2.1.4.178/driverlib/gcc/libdriver.a(interrupt.o)
                [!provide]                        PROVIDE (__stop_vtable, .)

.ARM.exidx      0x0000000000012510        0x8
                0x0000000000012510                __exidx_start = .
 *(.ARM.exidx* .gnu.linkonce.armexidx.*)
 .ARM.exidx     0x0000000000012510        0x8 /home/kaviya/ti/ccsv7/tools/compiler/gcc-arm-none-eabi-6-2017-q1-update/bin/../lib/gcc/arm-none-eabi/6.3.1/../../../../arm-none-eabi/lib/thumb/v7e-m/fpv4-sp/hard/crt0.o
                0x0000000000012518                __exidx_end = .

.ARM.extab      0x0000000000012518        0x0
 *(.ARM.extab* .gnu.linkonce.armextab.*)
 .ARM.extab     0x0000000000012518        0x0 /home/kaviya/ti/ccsv7/tools/compiler/gcc-arm-none-eabi-6-2017-q1-update/bin/../lib/gcc/arm-none-eabi/6.3.1/../../../../arm-none-eabi/lib/thumb/v7e-m/fpv4-sp/hard/crt0.o

.rel.dyn        0x0000000000012518        0x0
 .rel.iplt      0x0000000000012518        0x0 /home/kaviya/ti/ccsv7/tools/compiler/gcc-arm-none-eabi-6-2017-q1-update/bin/../lib/gcc/arm-none-eabi/6.3.1/thumb/v7e-m/fpv4-sp/hard/crtbegin.o

.bss            0x0000000020002c00      0x560
                0x0000000020002c00                __bss_start__ = .
 *(.shbss)
 *(.bss)
 .bss           0x0000000020002c00        0x0 /home/kaviya/ti/ccsv7/tools/compiler/gcc-arm-none-eabi-6-2017-q1-update/bin/../lib/gcc/arm-none-eabi/6.3.1/thumb/v7e-m/fpv4-sp/hard/crti.o
 .bss           0x0000000020002c00       0x1c /home/kaviya/ti/ccsv7/tools/compiler/gcc-arm-none-eabi-6-2017-q1-update/bin/../lib/gcc/arm-none-eabi/6.3.1/thumb/v7e-m/fpv4-sp/hard/crtbegin.o
 .bss           0x0000000020002c1c        0x0 /home/kaviya/ti/ccsv7/tools/compiler/gcc-arm-none-eabi-6-2017-q1-update/bin/../lib/gcc/arm-none-eabi/6.3.1/../../../../arm-none-eabi/lib/thumb/v7e-m/fpv4-sp/hard/crt0.o
 .bss           0x0000000020002c1c        0x0 ./Kentec320x240x16_ssd2119_spi.o
 .bss           0x0000000020002c1c        0x0 ./LCD.o
 .bss           0x0000000020002c1c        0x0 ./LCD_stairs.o
 .bss           0x0000000020002c1c        0x0 ./UART.o
 .bss           0x0000000020002c1c        0x0 ./images.o
 .bss           0x0000000020002c1c        0x0 ./tm4c123gh6pm_startup_ccs_gcc.o
 .bss           0x0000000020002c1c        0x0 ./touch.o
 .bss           0x0000000020002c1c        0x0 ./touch_isr.o
 .bss           0x0000000020002c1c        0x0 ./ustdlib.o
 .bss           0x0000000020002c1c        0x0 /home/kaviya/ti/ccsv7/tools/compiler/gcc-arm-none-eabi-6-2017-q1-update/bin/../lib/gcc/arm-none-eabi/6.3.1/../../../../arm-none-eabi/lib/thumb/v7e-m/fpv4-sp/hard/libc.a(lib_a-exit.o)
 .bss           0x0000000020002c1c        0x0 /home/kaviya/ti/ccsv7/tools/compiler/gcc-arm-none-eabi-6-2017-q1-update/bin/../lib/gcc/arm-none-eabi/6.3.1/../../../../arm-none-eabi/lib/thumb/v7e-m/fpv4-sp/hard/libc.a(lib_a-impure.o)
 .bss           0x0000000020002c1c        0x0 /home/kaviya/ti/ccsv7/tools/compiler/gcc-arm-none-eabi-6-2017-q1-update/bin/../lib/gcc/arm-none-eabi/6.3.1/../../../../arm-none-eabi/lib/thumb/v7e-m/fpv4-sp/hard/libc.a(lib_a-init.o)
 .bss           0x0000000020002c1c        0x0 /home/kaviya/ti/ccsv7/tools/compiler/gcc-arm-none-eabi-6-2017-q1-update/bin/../lib/gcc/arm-none-eabi/6.3.1/../../../../arm-none-eabi/lib/thumb/v7e-m/fpv4-sp/hard/libc.a(lib_a-itoa.o)
 .bss           0x0000000020002c1c        0x0 /home/kaviya/ti/ccsv7/tools/compiler/gcc-arm-none-eabi-6-2017-q1-update/bin/../lib/gcc/arm-none-eabi/6.3.1/../../../../arm-none-eabi/lib/thumb/v7e-m/fpv4-sp/hard/libc.a(lib_a-memset.o)
 .bss           0x0000000020002c1c        0x0 /home/kaviya/ti/ccsv7/tools/compiler/gcc-arm-none-eabi-6-2017-q1-update/bin/../lib/gcc/arm-none-eabi/6.3.1/../../../../arm-none-eabi/lib/thumb/v7e-m/fpv4-sp/hard/libc.a(lib_a-strlen.o)
 .bss           0x0000000020002c1c        0x0 /home/kaviya/ti/ccsv7/tools/compiler/gcc-arm-none-eabi-6-2017-q1-update/bin/../lib/gcc/arm-none-eabi/6.3.1/../../../../arm-none-eabi/lib/thumb/v7e-m/fpv4-sp/hard/libc.a(lib_a-utoa.o)
 .bss           0x0000000020002c1c        0x0 /home/kaviya/ti/ccsv7/tools/compiler/gcc-arm-none-eabi-6-2017-q1-update/bin/../lib/gcc/arm-none-eabi/6.3.1/../../../../arm-none-eabi/lib/thumb/v7e-m/fpv4-sp/hard/libc.a(lib_a-__call_atexit.o)
 .bss           0x0000000020002c1c        0x0 /home/kaviya/ti/ccsv7/tools/compiler/gcc-arm-none-eabi-6-2017-q1-update/bin/../lib/gcc/arm-none-eabi/6.3.1/../../../../arm-none-eabi/lib/thumb/v7e-m/fpv4-sp/hard/libc.a(lib_a-atexit.o)
 .bss           0x0000000020002c1c        0x0 /home/kaviya/ti/ccsv7/tools/compiler/gcc-arm-none-eabi-6-2017-q1-update/bin/../lib/gcc/arm-none-eabi/6.3.1/../../../../arm-none-eabi/lib/thumb/v7e-m/fpv4-sp/hard/libc.a(lib_a-fini.o)
 .bss           0x0000000020002c1c        0x0 /home/kaviya/ti/ccsv7/tools/compiler/gcc-arm-none-eabi-6-2017-q1-update/bin/../lib/gcc/arm-none-eabi/6.3.1/../../../../arm-none-eabi/lib/thumb/v7e-m/fpv4-sp/hard/libc.a(lib_a-lock.o)
 .bss           0x0000000020002c1c        0x0 /home/kaviya/ti/ccsv7/tools/compiler/gcc-arm-none-eabi-6-2017-q1-update/bin/../lib/gcc/arm-none-eabi/6.3.1/../../../../arm-none-eabi/lib/thumb/v7e-m/fpv4-sp/hard/libc.a(lib_a-__atexit.o)
 .bss           0x0000000020002c1c        0x0 /home/kaviya/ti/ccsv7/tools/compiler/gcc-arm-none-eabi-6-2017-q1-update/bin/../lib/gcc/arm-none-eabi/6.3.1/../../../../arm-none-eabi/lib/thumb/v7e-m/fpv4-sp/hard/librdimon.a(rdimon-_exit.o)
 .bss           0x0000000020002c1c        0x0 /home/kaviya/ti/ccsv7/tools/compiler/gcc-arm-none-eabi-6-2017-q1-update/bin/../lib/gcc/arm-none-eabi/6.3.1/../../../../arm-none-eabi/lib/thumb/v7e-m/fpv4-sp/hard/librdimon.a(rdimon-_kill.o)
 .bss           0x0000000020002c1c        0x0 /home/kaviya/ti/TivaWare_C_Series-2.1.4.178/driverlib/gcc/libdriver.a(adc.o)
 .bss           0x0000000020002c1c        0x0 /home/kaviya/ti/TivaWare_C_Series-2.1.4.178/driverlib/gcc/libdriver.a(fpu.o)
 .bss           0x0000000020002c1c        0x0 /home/kaviya/ti/TivaWare_C_Series-2.1.4.178/driverlib/gcc/libdriver.a(gpio.o)
 .bss           0x0000000020002c1c        0x0 /home/kaviya/ti/TivaWare_C_Series-2.1.4.178/driverlib/gcc/libdriver.a(interrupt.o)
 .bss           0x0000000020002c1c        0x0 /home/kaviya/ti/TivaWare_C_Series-2.1.4.178/driverlib/gcc/libdriver.a(ssi.o)
 .bss           0x0000000020002c1c        0x0 /home/kaviya/ti/TivaWare_C_Series-2.1.4.178/driverlib/gcc/libdriver.a(sysctl.o)
 .bss           0x0000000020002c1c        0x0 /home/kaviya/ti/TivaWare_C_Series-2.1.4.178/driverlib/gcc/libdriver.a(timer.o)
 .bss           0x0000000020002c1c        0x0 /home/kaviya/ti/TivaWare_C_Series-2.1.4.178/driverlib/gcc/libdriver.a(uart.o)
 .bss           0x0000000020002c1c        0x0 /home/kaviya/ti/TivaWare_C_Series-2.1.4.178/driverlib/gcc/libdriver.a(cpu.o)
 .bss           0x0000000020002c1c        0x0 /home/kaviya/ti/TivaWare_C_Series-2.1.4.178/grlib/gcc/libgr.a(context.o)
 .bss           0x0000000020002c1c        0x0 /home/kaviya/ti/TivaWare_C_Series-2.1.4.178/grlib/gcc/libgr.a(fontcm12.o)
 .bss           0x0000000020002c1c        0x0 /home/kaviya/ti/TivaWare_C_Series-2.1.4.178/grlib/gcc/libgr.a(fontcm14.o)
 .bss           0x0000000020002c1c        0x0 /home/kaviya/ti/TivaWare_C_Series-2.1.4.178/grlib/gcc/libgr.a(fontcm16.o)
 .bss           0x0000000020002c1c        0x0 /home/kaviya/ti/TivaWare_C_Series-2.1.4.178/grlib/gcc/libgr.a(fontcm20.o)
 .bss           0x0000000020002c1c        0x0 /home/kaviya/ti/TivaWare_C_Series-2.1.4.178/grlib/gcc/libgr.a(line.o)
 .bss           0x0000000020002c1c        0x0 /home/kaviya/ti/TivaWare_C_Series-2.1.4.178/grlib/gcc/libgr.a(pushbutton.o)
 .bss           0x0000000020002c1c        0x0 /home/kaviya/ti/TivaWare_C_Series-2.1.4.178/grlib/gcc/libgr.a(rectangle.o)
 .bss           0x0000000020002c1c        0x0 /home/kaviya/ti/TivaWare_C_Series-2.1.4.178/grlib/gcc/libgr.a(slider.o)
 .bss           0x0000000020002c1c        0x0 /home/kaviya/ti/TivaWare_C_Series-2.1.4.178/grlib/gcc/libgr.a(string.o)
 .bss           0x0000000020002c1c        0x0 /home/kaviya/ti/TivaWare_C_Series-2.1.4.178/grlib/gcc/libgr.a(widget.o)
 .bss           0x0000000020002c1c        0x0 /home/kaviya/ti/TivaWare_C_Series-2.1.4.178/grlib/gcc/libgr.a(charmap.o)
 .bss           0x0000000020002c1c        0x0 /home/kaviya/ti/TivaWare_C_Series-2.1.4.178/grlib/gcc/libgr.a(circle.o)
 .bss           0x0000000020002c1c        0x0 /home/kaviya/ti/TivaWare_C_Series-2.1.4.178/grlib/gcc/libgr.a(image.o)
 .bss           0x0000000020002c1c        0x0 /home/kaviya/ti/ccsv7/tools/compiler/gcc-arm-none-eabi-6-2017-q1-update/bin/../lib/gcc/arm-none-eabi/6.3.1/thumb/v7e-m/fpv4-sp/hard/libgcc.a(_arm_addsubdf3.o)
 .bss           0x0000000020002c1c        0x0 /home/kaviya/ti/ccsv7/tools/compiler/gcc-arm-none-eabi-6-2017-q1-update/bin/../lib/gcc/arm-none-eabi/6.3.1/thumb/v7e-m/fpv4-sp/hard/libgcc.a(_arm_muldivdf3.o)
 .bss           0x0000000020002c1c        0x0 /home/kaviya/ti/ccsv7/tools/compiler/gcc-arm-none-eabi-6-2017-q1-update/bin/../lib/gcc/arm-none-eabi/6.3.1/thumb/v7e-m/fpv4-sp/hard/libgcc.a(_arm_cmpdf2.o)
 .bss           0x0000000020002c1c        0x0 /home/kaviya/ti/ccsv7/tools/compiler/gcc-arm-none-eabi-6-2017-q1-update/bin/../lib/gcc/arm-none-eabi/6.3.1/thumb/v7e-m/fpv4-sp/hard/libgcc.a(_arm_fixdfsi.o)
 .bss           0x0000000020002c1c        0x0 /home/kaviya/ti/ccsv7/tools/compiler/gcc-arm-none-eabi-6-2017-q1-update/bin/../lib/gcc/arm-none-eabi/6.3.1/thumb/v7e-m/fpv4-sp/hard/crtend.o
 .bss           0x0000000020002c1c        0x0 /home/kaviya/ti/ccsv7/tools/compiler/gcc-arm-none-eabi-6-2017-q1-update/bin/../lib/gcc/arm-none-eabi/6.3.1/thumb/v7e-m/fpv4-sp/hard/crtn.o
 *(.bss.*)
 .bss.print_left
                0x0000000020002c1c        0x4 ./LCD.o
                0x0000000020002c1c                print_left
 .bss.print_left_ch2
                0x0000000020002c20        0x4 ./LCD.o
                0x0000000020002c20                print_left_ch2
 .bss.prev_time_left
                0x0000000020002c24        0x4 ./LCD.o
                0x0000000020002c24                prev_time_left
 .bss.prev_time_left_2
                0x0000000020002c28        0x4 ./LCD.o
                0x0000000020002c28                prev_time_left_2
 .bss.max_index
                0x0000000020002c2c        0x4 ./LCD.o
                0x0000000020002c2c                max_index
 .bss.min_index
                0x0000000020002c30        0x4 ./LCD.o
                0x0000000020002c30                min_index
 .bss.get_string_flag
                0x0000000020002c34        0x1 ./UART.o
                0x0000000020002c34                get_string_flag
 .bss.i         0x0000000020002c35        0x1 ./UART.o
                0x0000000020002c35                i
 *fill*         0x0000000020002c36        0x2 
 .bss.pui32Stack
                0x0000000020002c38      0x200 ./tm4c123gh6pm_startup_ccs_gcc.o
 .bss.g_ui32TSState
                0x0000000020002e38        0x4 ./touch.o
 .bss.g_pfnTSHandler
                0x0000000020002e3c        0x4 ./touch.o
 .bss.g_ui8State
                0x0000000020002e40        0x1 ./touch.o
 *fill*         0x0000000020002e41        0x3 
 .bss.g_pi16Samples
                0x0000000020002e44       0x10 ./touch.o
 .bss.g_i8Index
                0x0000000020002e54        0x1 ./touch.o
 *fill*         0x0000000020002e55        0x3 
 .bss.prev_print_left
                0x0000000020002e58        0x4 ./touch_isr.o
                0x0000000020002e58                prev_print_left
 .bss.prev_print_left_ch2
                0x0000000020002e5c        0x4 ./touch_isr.o
                0x0000000020002e5c                prev_print_left_ch2
 .bss.time_interval_ptr
                0x0000000020002e60        0x4 ./touch_isr.o
                0x0000000020002e60                time_interval_ptr
 .bss.print_int_ptr
                0x0000000020002e64        0x1 ./touch_isr.o
                0x0000000020002e64                print_int_ptr
 .bss.g_pui8OversampleFactor
                0x0000000020002e65        0x6 /home/kaviya/ti/TivaWare_C_Series-2.1.4.178/driverlib/gcc/libdriver.a(adc.o)
 *fill*         0x0000000020002e6b        0x1 
 .bss.g_psGrLibDefaults
                0x0000000020002e6c        0x4 /home/kaviya/ti/TivaWare_C_Series-2.1.4.178/grlib/gcc/libgr.a(context.o)
 .bss.g_pui16LanguageTable
                0x0000000020002e70        0x4 /home/kaviya/ti/TivaWare_C_Series-2.1.4.178/grlib/gcc/libgr.a(string.o)
 .bss.g_ui16NumLanguages
                0x0000000020002e74        0x2 /home/kaviya/ti/TivaWare_C_Series-2.1.4.178/grlib/gcc/libgr.a(string.o)
 .bss.g_ui16NumStrings
                0x0000000020002e76        0x2 /home/kaviya/ti/TivaWare_C_Series-2.1.4.178/grlib/gcc/libgr.a(string.o)
 .bss.g_pui8StringData
                0x0000000020002e78        0x4 /home/kaviya/ti/TivaWare_C_Series-2.1.4.178/grlib/gcc/libgr.a(string.o)
 .bss.g_pui32StringTable
                0x0000000020002e7c        0x4 /home/kaviya/ti/TivaWare_C_Series-2.1.4.178/grlib/gcc/libgr.a(string.o)
 .bss.g_ui16Language
                0x0000000020002e80        0x2 /home/kaviya/ti/TivaWare_C_Series-2.1.4.178/grlib/gcc/libgr.a(string.o)
 *fill*         0x0000000020002e82        0x2 
 .bss.g_psPointerWidget
                0x0000000020002e84        0x4 /home/kaviya/ti/TivaWare_C_Series-2.1.4.178/grlib/gcc/libgr.a(widget.o)
 .bss.g_ui8MQMutex
                0x0000000020002e88        0x1 /home/kaviya/ti/TivaWare_C_Series-2.1.4.178/grlib/gcc/libgr.a(widget.o)
 *fill*         0x0000000020002e89        0x3 
 .bss.g_ui32MQRead
                0x0000000020002e8c        0x4 /home/kaviya/ti/TivaWare_C_Series-2.1.4.178/grlib/gcc/libgr.a(widget.o)
 .bss.g_psMQ    0x0000000020002e90      0x140 /home/kaviya/ti/TivaWare_C_Series-2.1.4.178/grlib/gcc/libgr.a(widget.o)
 .bss.g_ui32MQWrite
                0x0000000020002fd0        0x4 /home/kaviya/ti/TivaWare_C_Series-2.1.4.178/grlib/gcc/libgr.a(widget.o)
 .bss.g_pui8Dictionary
                0x0000000020002fd4       0x20 /home/kaviya/ti/TivaWare_C_Series-2.1.4.178/grlib/gcc/libgr.a(image.o)
 *(COMMON)
 COMMON         0x0000000020002ff4       0xa0 ./LCD.o
                0x0000000020002ff4                Rect_t2
                0x0000000020002ffc                Rect_t1
                0x0000000020003004                Rect_vpp_ch1
                0x000000002000300c                Rect_vpp_ch2
                0x0000000020003014                Rect_f_ch1
                0x000000002000301c                sRect
                0x0000000020003024                RectL_ch2
                0x000000002000302c                sContext
                0x0000000020003058                str_left
                0x0000000020003064                str_time
                0x0000000020003070                RectR_ch2
                0x0000000020003078                Rect_f_ch2
                0x0000000020003080                diff
                0x0000000020003084                str_right
                0x0000000020003090                ui32SysClock
 COMMON         0x0000000020003094       0x18 ./LCD_stairs.o
                0x0000000020003094                Rect_R
                0x000000002000309c                Rect_M
                0x00000000200030a4                Rect_L
 COMMON         0x00000000200030ac       0x64 ./UART.o
                0x00000000200030ac                string
 COMMON         0x0000000020003110        0xa ./touch.o
                0x0000000020003110                g_i16TouchX
                0x0000000020003114                g_pi32ParmSet
                0x0000000020003118                g_i16TouchY
 *fill*         0x000000002000311a        0x2 
 COMMON         0x000000002000311c       0x20 ./touch_isr.o
                0x000000002000311c                Rect_ch2
                0x0000000020003124                Rect_TB2
                0x000000002000312c                Rect_TB1
                0x0000000020003134                Rect_ch1
 COMMON         0x000000002000313c       0x21 /home/kaviya/ti/ccsv7/tools/compiler/gcc-arm-none-eabi-6-2017-q1-update/bin/../lib/gcc/arm-none-eabi/6.3.1/../../../../arm-none-eabi/lib/thumb/v7e-m/fpv4-sp/hard/libc.a(lib_a-lock.o)
                0x000000002000313c                __lock___atexit_recursive_mutex
                0x0000000020003140                __lock___arc4random_mutex
                0x0000000020003144                __lock___env_recursive_mutex
                0x0000000020003148                __lock___sinit_recursive_mutex
                0x000000002000314c                __lock___malloc_recursive_mutex
                0x0000000020003150                __lock___at_quick_exit_mutex
                0x0000000020003154                __lock___dd_hash_mutex
                0x0000000020003158                __lock___tz_mutex
                0x000000002000315c                __lock___sfp_recursive_mutex
                0x0000000020003160                . = ALIGN (0x4)
 *fill*         0x000000002000315d        0x3 
                0x0000000020003160                __bss_end__ = .

.heap           0x0000000020003160        0x0
                0x0000000020003160                __heap_start__ = .
                0x0000000020003160                end = __heap_start__
                0x0000000020003160                _end = end
                0x0000000020003160                __end = end
 *(.heap)
                0x0000000020003160                __heap_end__ = .
                0x0000000020003160                __HeapLimit = __heap_end__

.stack          0x0000000020003160        0x0
                0x0000000020003160                _stack = .
                0x0000000020003160                __stack = .
 *(.stack)
START GROUP
LOAD /home/kaviya/ti/ccsv7/tools/compiler/gcc-arm-none-eabi-6-2017-q1-update/bin/../lib/gcc/arm-none-eabi/6.3.1/../../../../arm-none-eabi/lib/thumb/v7e-m/fpv4-sp/hard/libc.a
LOAD /home/kaviya/ti/ccsv7/tools/compiler/gcc-arm-none-eabi-6-2017-q1-update/bin/../lib/gcc/arm-none-eabi/6.3.1/../../../../arm-none-eabi/lib/thumb/v7e-m/fpv4-sp/hard/librdimon.a
END GROUP
LOAD /home/kaviya/ti/TivaWare_C_Series-2.1.4.178/driverlib/gcc/libdriver.a
LOAD /home/kaviya/ti/TivaWare_C_Series-2.1.4.178/grlib/gcc/libgr.a
START GROUP
LOAD /home/kaviya/ti/ccsv7/tools/compiler/gcc-arm-none-eabi-6-2017-q1-update/bin/../lib/gcc/arm-none-eabi/6.3.1/thumb/v7e-m/fpv4-sp/hard/libgcc.a
LOAD /home/kaviya/ti/ccsv7/tools/compiler/gcc-arm-none-eabi-6-2017-q1-update/bin/../lib/gcc/arm-none-eabi/6.3.1/../../../../arm-none-eabi/lib/thumb/v7e-m/fpv4-sp/hard/libg.a
LOAD /home/kaviya/ti/ccsv7/tools/compiler/gcc-arm-none-eabi-6-2017-q1-update/bin/../lib/gcc/arm-none-eabi/6.3.1/../../../../arm-none-eabi/lib/thumb/v7e-m/fpv4-sp/hard/libc.a
END GROUP
START GROUP
LOAD /home/kaviya/ti/ccsv7/tools/compiler/gcc-arm-none-eabi-6-2017-q1-update/bin/../lib/gcc/arm-none-eabi/6.3.1/thumb/v7e-m/fpv4-sp/hard/libgcc.a
LOAD /home/kaviya/ti/ccsv7/tools/compiler/gcc-arm-none-eabi-6-2017-q1-update/bin/../lib/gcc/arm-none-eabi/6.3.1/../../../../arm-none-eabi/lib/thumb/v7e-m/fpv4-sp/hard/libc.a
LOAD /home/kaviya/ti/ccsv7/tools/compiler/gcc-arm-none-eabi-6-2017-q1-update/bin/../lib/gcc/arm-none-eabi/6.3.1/../../../../arm-none-eabi/lib/thumb/v7e-m/fpv4-sp/hard/libnosys.a
END GROUP
LOAD /home/kaviya/ti/ccsv7/tools/compiler/gcc-arm-none-eabi-6-2017-q1-update/bin/../lib/gcc/arm-none-eabi/6.3.1/thumb/v7e-m/fpv4-sp/hard/crtend.o
LOAD /home/kaviya/ti/ccsv7/tools/compiler/gcc-arm-none-eabi-6-2017-q1-update/bin/../lib/gcc/arm-none-eabi/6.3.1/thumb/v7e-m/fpv4-sp/hard/crtn.o
OUTPUT(Copy of Copy of LCD_Display.out elf32-littlearm)

.ARM.attributes
                0x0000000000000000       0x30
 .ARM.attributes
                0x0000000000000000       0x22 /home/kaviya/ti/ccsv7/tools/compiler/gcc-arm-none-eabi-6-2017-q1-update/bin/../lib/gcc/arm-none-eabi/6.3.1/thumb/v7e-m/fpv4-sp/hard/crti.o
 .ARM.attributes
                0x0000000000000022       0x34 /home/kaviya/ti/ccsv7/tools/compiler/gcc-arm-none-eabi-6-2017-q1-update/bin/../lib/gcc/arm-none-eabi/6.3.1/thumb/v7e-m/fpv4-sp/hard/crtbegin.o
 .ARM.attributes
                0x0000000000000056       0x20 /home/kaviya/ti/ccsv7/tools/compiler/gcc-arm-none-eabi-6-2017-q1-update/bin/../lib/gcc/arm-none-eabi/6.3.1/../../../../arm-none-eabi/lib/thumb/v7e-m/fpv4-sp/hard/crt0.o
 .ARM.attributes
                0x0000000000000076       0x39 ./Kentec320x240x16_ssd2119_spi.o
 .ARM.attributes
                0x00000000000000af       0x39 ./LCD.o
 .ARM.attributes
                0x00000000000000e8       0x39 ./LCD_stairs.o
 .ARM.attributes
                0x0000000000000121       0x39 ./UART.o
 .ARM.attributes
                0x000000000000015a       0x39 ./images.o
 .ARM.attributes
                0x0000000000000193       0x39 ./tm4c123gh6pm_startup_ccs_gcc.o
 .ARM.attributes
                0x00000000000001cc       0x39 ./touch.o
 .ARM.attributes
                0x0000000000000205       0x39 ./touch_isr.o
 .ARM.attributes
                0x000000000000023e       0x39 ./ustdlib.o
 .ARM.attributes
                0x0000000000000277       0x34 /home/kaviya/ti/ccsv7/tools/compiler/gcc-arm-none-eabi-6-2017-q1-update/bin/../lib/gcc/arm-none-eabi/6.3.1/../../../../arm-none-eabi/lib/thumb/v7e-m/fpv4-sp/hard/libc.a(lib_a-exit.o)
 .ARM.attributes
                0x00000000000002ab       0x34 /home/kaviya/ti/ccsv7/tools/compiler/gcc-arm-none-eabi-6-2017-q1-update/bin/../lib/gcc/arm-none-eabi/6.3.1/../../../../arm-none-eabi/lib/thumb/v7e-m/fpv4-sp/hard/libc.a(lib_a-impure.o)
 .ARM.attributes
                0x00000000000002df       0x34 /home/kaviya/ti/ccsv7/tools/compiler/gcc-arm-none-eabi-6-2017-q1-update/bin/../lib/gcc/arm-none-eabi/6.3.1/../../../../arm-none-eabi/lib/thumb/v7e-m/fpv4-sp/hard/libc.a(lib_a-init.o)
 .ARM.attributes
                0x0000000000000313       0x34 /home/kaviya/ti/ccsv7/tools/compiler/gcc-arm-none-eabi-6-2017-q1-update/bin/../lib/gcc/arm-none-eabi/6.3.1/../../../../arm-none-eabi/lib/thumb/v7e-m/fpv4-sp/hard/libc.a(lib_a-itoa.o)
 .ARM.attributes
                0x0000000000000347       0x34 /home/kaviya/ti/ccsv7/tools/compiler/gcc-arm-none-eabi-6-2017-q1-update/bin/../lib/gcc/arm-none-eabi/6.3.1/../../../../arm-none-eabi/lib/thumb/v7e-m/fpv4-sp/hard/libc.a(lib_a-memset.o)
 .ARM.attributes
                0x000000000000037b       0x20 /home/kaviya/ti/ccsv7/tools/compiler/gcc-arm-none-eabi-6-2017-q1-update/bin/../lib/gcc/arm-none-eabi/6.3.1/../../../../arm-none-eabi/lib/thumb/v7e-m/fpv4-sp/hard/libc.a(lib_a-strlen.o)
 .ARM.attributes
                0x000000000000039b       0x34 /home/kaviya/ti/ccsv7/tools/compiler/gcc-arm-none-eabi-6-2017-q1-update/bin/../lib/gcc/arm-none-eabi/6.3.1/../../../../arm-none-eabi/lib/thumb/v7e-m/fpv4-sp/hard/libc.a(lib_a-utoa.o)
 .ARM.attributes
                0x00000000000003cf       0x34 /home/kaviya/ti/ccsv7/tools/compiler/gcc-arm-none-eabi-6-2017-q1-update/bin/../lib/gcc/arm-none-eabi/6.3.1/../../../../arm-none-eabi/lib/thumb/v7e-m/fpv4-sp/hard/libc.a(lib_a-__call_atexit.o)
 .ARM.attributes
                0x0000000000000403       0x34 /home/kaviya/ti/ccsv7/tools/compiler/gcc-arm-none-eabi-6-2017-q1-update/bin/../lib/gcc/arm-none-eabi/6.3.1/../../../../arm-none-eabi/lib/thumb/v7e-m/fpv4-sp/hard/libc.a(lib_a-atexit.o)
 .ARM.attributes
                0x0000000000000437       0x34 /home/kaviya/ti/ccsv7/tools/compiler/gcc-arm-none-eabi-6-2017-q1-update/bin/../lib/gcc/arm-none-eabi/6.3.1/../../../../arm-none-eabi/lib/thumb/v7e-m/fpv4-sp/hard/libc.a(lib_a-fini.o)
 .ARM.attributes
                0x000000000000046b       0x34 /home/kaviya/ti/ccsv7/tools/compiler/gcc-arm-none-eabi-6-2017-q1-update/bin/../lib/gcc/arm-none-eabi/6.3.1/../../../../arm-none-eabi/lib/thumb/v7e-m/fpv4-sp/hard/libc.a(lib_a-lock.o)
 .ARM.attributes
                0x000000000000049f       0x34 /home/kaviya/ti/ccsv7/tools/compiler/gcc-arm-none-eabi-6-2017-q1-update/bin/../lib/gcc/arm-none-eabi/6.3.1/../../../../arm-none-eabi/lib/thumb/v7e-m/fpv4-sp/hard/libc.a(lib_a-__atexit.o)
 .ARM.attributes
                0x00000000000004d3       0x34 /home/kaviya/ti/ccsv7/tools/compiler/gcc-arm-none-eabi-6-2017-q1-update/bin/../lib/gcc/arm-none-eabi/6.3.1/../../../../arm-none-eabi/lib/thumb/v7e-m/fpv4-sp/hard/librdimon.a(rdimon-_exit.o)
 .ARM.attributes
                0x0000000000000507       0x34 /home/kaviya/ti/ccsv7/tools/compiler/gcc-arm-none-eabi-6-2017-q1-update/bin/../lib/gcc/arm-none-eabi/6.3.1/../../../../arm-none-eabi/lib/thumb/v7e-m/fpv4-sp/hard/librdimon.a(rdimon-_kill.o)
 .ARM.attributes
                0x000000000000053b       0x3b /home/kaviya/ti/TivaWare_C_Series-2.1.4.178/driverlib/gcc/libdriver.a(adc.o)
 .ARM.attributes
                0x0000000000000576       0x3b /home/kaviya/ti/TivaWare_C_Series-2.1.4.178/driverlib/gcc/libdriver.a(fpu.o)
 .ARM.attributes
                0x00000000000005b1       0x3b /home/kaviya/ti/TivaWare_C_Series-2.1.4.178/driverlib/gcc/libdriver.a(gpio.o)
 .ARM.attributes
                0x00000000000005ec       0x3b /home/kaviya/ti/TivaWare_C_Series-2.1.4.178/driverlib/gcc/libdriver.a(interrupt.o)
 .ARM.attributes
                0x0000000000000627       0x3b /home/kaviya/ti/TivaWare_C_Series-2.1.4.178/driverlib/gcc/libdriver.a(ssi.o)
 .ARM.attributes
                0x0000000000000662       0x3b /home/kaviya/ti/TivaWare_C_Series-2.1.4.178/driverlib/gcc/libdriver.a(sysctl.o)
 .ARM.attributes
                0x000000000000069d       0x3b /home/kaviya/ti/TivaWare_C_Series-2.1.4.178/driverlib/gcc/libdriver.a(timer.o)
 .ARM.attributes
                0x00000000000006d8       0x3b /home/kaviya/ti/TivaWare_C_Series-2.1.4.178/driverlib/gcc/libdriver.a(uart.o)
 .ARM.attributes
                0x0000000000000713       0x3b /home/kaviya/ti/TivaWare_C_Series-2.1.4.178/driverlib/gcc/libdriver.a(cpu.o)
 .ARM.attributes
                0x000000000000074e       0x3b /home/kaviya/ti/TivaWare_C_Series-2.1.4.178/grlib/gcc/libgr.a(context.o)
 .ARM.attributes
                0x0000000000000789       0x3b /home/kaviya/ti/TivaWare_C_Series-2.1.4.178/grlib/gcc/libgr.a(fontcm12.o)
 .ARM.attributes
                0x00000000000007c4       0x3b /home/kaviya/ti/TivaWare_C_Series-2.1.4.178/grlib/gcc/libgr.a(fontcm14.o)
 .ARM.attributes
                0x00000000000007ff       0x3b /home/kaviya/ti/TivaWare_C_Series-2.1.4.178/grlib/gcc/libgr.a(fontcm16.o)
 .ARM.attributes
                0x000000000000083a       0x3b /home/kaviya/ti/TivaWare_C_Series-2.1.4.178/grlib/gcc/libgr.a(fontcm20.o)
 .ARM.attributes
                0x0000000000000875       0x3b /home/kaviya/ti/TivaWare_C_Series-2.1.4.178/grlib/gcc/libgr.a(line.o)
 .ARM.attributes
                0x00000000000008b0       0x3b /home/kaviya/ti/TivaWare_C_Series-2.1.4.178/grlib/gcc/libgr.a(pushbutton.o)
 .ARM.attributes
                0x00000000000008eb       0x3b /home/kaviya/ti/TivaWare_C_Series-2.1.4.178/grlib/gcc/libgr.a(rectangle.o)
 .ARM.attributes
                0x0000000000000926       0x3b /home/kaviya/ti/TivaWare_C_Series-2.1.4.178/grlib/gcc/libgr.a(slider.o)
 .ARM.attributes
                0x0000000000000961       0x3b /home/kaviya/ti/TivaWare_C_Series-2.1.4.178/grlib/gcc/libgr.a(string.o)
 .ARM.attributes
                0x000000000000099c       0x3b /home/kaviya/ti/TivaWare_C_Series-2.1.4.178/grlib/gcc/libgr.a(widget.o)
 .ARM.attributes
                0x00000000000009d7       0x3b /home/kaviya/ti/TivaWare_C_Series-2.1.4.178/grlib/gcc/libgr.a(charmap.o)
 .ARM.attributes
                0x0000000000000a12       0x3b /home/kaviya/ti/TivaWare_C_Series-2.1.4.178/grlib/gcc/libgr.a(circle.o)
 .ARM.attributes
                0x0000000000000a4d       0x3b /home/kaviya/ti/TivaWare_C_Series-2.1.4.178/grlib/gcc/libgr.a(image.o)
 .ARM.attributes
                0x0000000000000a88       0x22 /home/kaviya/ti/ccsv7/tools/compiler/gcc-arm-none-eabi-6-2017-q1-update/bin/../lib/gcc/arm-none-eabi/6.3.1/thumb/v7e-m/fpv4-sp/hard/libgcc.a(_arm_addsubdf3.o)
 .ARM.attributes
                0x0000000000000aaa       0x22 /home/kaviya/ti/ccsv7/tools/compiler/gcc-arm-none-eabi-6-2017-q1-update/bin/../lib/gcc/arm-none-eabi/6.3.1/thumb/v7e-m/fpv4-sp/hard/libgcc.a(_arm_muldivdf3.o)
 .ARM.attributes
                0x0000000000000acc       0x22 /home/kaviya/ti/ccsv7/tools/compiler/gcc-arm-none-eabi-6-2017-q1-update/bin/../lib/gcc/arm-none-eabi/6.3.1/thumb/v7e-m/fpv4-sp/hard/libgcc.a(_arm_cmpdf2.o)
 .ARM.attributes
                0x0000000000000aee       0x22 /home/kaviya/ti/ccsv7/tools/compiler/gcc-arm-none-eabi-6-2017-q1-update/bin/../lib/gcc/arm-none-eabi/6.3.1/thumb/v7e-m/fpv4-sp/hard/libgcc.a(_arm_fixdfsi.o)
 .ARM.attributes
                0x0000000000000b10       0x34 /home/kaviya/ti/ccsv7/tools/compiler/gcc-arm-none-eabi-6-2017-q1-update/bin/../lib/gcc/arm-none-eabi/6.3.1/thumb/v7e-m/fpv4-sp/hard/crtend.o
 .ARM.attributes
                0x0000000000000b44       0x22 /home/kaviya/ti/ccsv7/tools/compiler/gcc-arm-none-eabi-6-2017-q1-update/bin/../lib/gcc/arm-none-eabi/6.3.1/thumb/v7e-m/fpv4-sp/hard/crtn.o

.comment        0x0000000000000000       0xef
 .comment       0x0000000000000000       0x7f ./Kentec320x240x16_ssd2119_spi.o
                                         0x80 (size before relaxing)
 .comment       0x000000000000007f       0x80 ./LCD.o
 .comment       0x000000000000007f       0x80 ./LCD_stairs.o
 .comment       0x000000000000007f       0x80 ./UART.o
 .comment       0x000000000000007f       0x80 ./images.o
 .comment       0x000000000000007f       0x80 ./tm4c123gh6pm_startup_ccs_gcc.o
 .comment       0x000000000000007f       0x80 ./touch.o
 .comment       0x000000000000007f       0x80 ./touch_isr.o
 .comment       0x000000000000007f       0x80 ./ustdlib.o
 .comment       0x000000000000007f       0x70 /home/kaviya/ti/TivaWare_C_Series-2.1.4.178/driverlib/gcc/libdriver.a(adc.o)
                                         0x71 (size before relaxing)
 .comment       0x00000000000000ef       0x71 /home/kaviya/ti/TivaWare_C_Series-2.1.4.178/driverlib/gcc/libdriver.a(fpu.o)
 .comment       0x00000000000000ef       0x71 /home/kaviya/ti/TivaWare_C_Series-2.1.4.178/driverlib/gcc/libdriver.a(gpio.o)
 .comment       0x00000000000000ef       0x71 /home/kaviya/ti/TivaWare_C_Series-2.1.4.178/driverlib/gcc/libdriver.a(interrupt.o)
 .comment       0x00000000000000ef       0x71 /home/kaviya/ti/TivaWare_C_Series-2.1.4.178/driverlib/gcc/libdriver.a(ssi.o)
 .comment       0x00000000000000ef       0x71 /home/kaviya/ti/TivaWare_C_Series-2.1.4.178/driverlib/gcc/libdriver.a(sysctl.o)
 .comment       0x00000000000000ef       0x71 /home/kaviya/ti/TivaWare_C_Series-2.1.4.178/driverlib/gcc/libdriver.a(timer.o)
 .comment       0x00000000000000ef       0x71 /home/kaviya/ti/TivaWare_C_Series-2.1.4.178/driverlib/gcc/libdriver.a(uart.o)
 .comment       0x00000000000000ef       0x71 /home/kaviya/ti/TivaWare_C_Series-2.1.4.178/driverlib/gcc/libdriver.a(cpu.o)
 .comment       0x00000000000000ef       0x71 /home/kaviya/ti/TivaWare_C_Series-2.1.4.178/grlib/gcc/libgr.a(context.o)
 .comment       0x00000000000000ef       0x71 /home/kaviya/ti/TivaWare_C_Series-2.1.4.178/grlib/gcc/libgr.a(fontcm12.o)
 .comment       0x00000000000000ef       0x71 /home/kaviya/ti/TivaWare_C_Series-2.1.4.178/grlib/gcc/libgr.a(fontcm14.o)
 .comment       0x00000000000000ef       0x71 /home/kaviya/ti/TivaWare_C_Series-2.1.4.178/grlib/gcc/libgr.a(fontcm16.o)
 .comment       0x00000000000000ef       0x71 /home/kaviya/ti/TivaWare_C_Series-2.1.4.178/grlib/gcc/libgr.a(fontcm20.o)
 .comment       0x00000000000000ef       0x71 /home/kaviya/ti/TivaWare_C_Series-2.1.4.178/grlib/gcc/libgr.a(line.o)
 .comment       0x00000000000000ef       0x71 /home/kaviya/ti/TivaWare_C_Series-2.1.4.178/grlib/gcc/libgr.a(pushbutton.o)
 .comment       0x00000000000000ef       0x71 /home/kaviya/ti/TivaWare_C_Series-2.1.4.178/grlib/gcc/libgr.a(rectangle.o)
 .comment       0x00000000000000ef       0x71 /home/kaviya/ti/TivaWare_C_Series-2.1.4.178/grlib/gcc/libgr.a(slider.o)
 .comment       0x00000000000000ef       0x71 /home/kaviya/ti/TivaWare_C_Series-2.1.4.178/grlib/gcc/libgr.a(string.o)
 .comment       0x00000000000000ef       0x71 /home/kaviya/ti/TivaWare_C_Series-2.1.4.178/grlib/gcc/libgr.a(widget.o)
 .comment       0x00000000000000ef       0x71 /home/kaviya/ti/TivaWare_C_Series-2.1.4.178/grlib/gcc/libgr.a(charmap.o)
 .comment       0x00000000000000ef       0x71 /home/kaviya/ti/TivaWare_C_Series-2.1.4.178/grlib/gcc/libgr.a(circle.o)
 .comment       0x00000000000000ef       0x71 /home/kaviya/ti/TivaWare_C_Series-2.1.4.178/grlib/gcc/libgr.a(image.o)

.debug_info     0x0000000000000000     0xa585
 .debug_info    0x0000000000000000      0xf47 ./Kentec320x240x16_ssd2119_spi.o
 .debug_info    0x0000000000000f47     0x22c0 ./LCD.o
 .debug_info    0x0000000000003207     0x1bb3 ./LCD_stairs.o
 .debug_info    0x0000000000004dba      0xcf9 ./UART.o
 .debug_info    0x0000000000005ab3      0xaea ./images.o
 .debug_info    0x000000000000659d      0x194 ./tm4c123gh6pm_startup_ccs_gcc.o
 .debug_info    0x0000000000006731      0xdf9 ./touch.o
 .debug_info    0x000000000000752a     0x2019 ./touch_isr.o
 .debug_info    0x0000000000009543     0x1042 ./ustdlib.o

.debug_abbrev   0x0000000000000000     0x116a
 .debug_abbrev  0x0000000000000000      0x176 ./Kentec320x240x16_ssd2119_spi.o
 .debug_abbrev  0x0000000000000176      0x2af ./LCD.o
 .debug_abbrev  0x0000000000000425      0x262 ./LCD_stairs.o
 .debug_abbrev  0x0000000000000687      0x2bc ./UART.o
 .debug_abbrev  0x0000000000000943       0xad ./images.o
 .debug_abbrev  0x00000000000009f0       0xca ./tm4c123gh6pm_startup_ccs_gcc.o
 .debug_abbrev  0x0000000000000aba      0x14a ./touch.o
 .debug_abbrev  0x0000000000000c04      0x29e ./touch_isr.o
 .debug_abbrev  0x0000000000000ea2      0x2c8 ./ustdlib.o

.debug_aranges  0x0000000000000000      0x300
 .debug_aranges
                0x0000000000000000       0x80 ./Kentec320x240x16_ssd2119_spi.o
 .debug_aranges
                0x0000000000000080       0x58 ./LCD.o
 .debug_aranges
                0x00000000000000d8       0x30 ./LCD_stairs.o
 .debug_aranges
                0x0000000000000108       0x78 ./UART.o
 .debug_aranges
                0x0000000000000180       0x18 ./images.o
 .debug_aranges
                0x0000000000000198       0x38 ./tm4c123gh6pm_startup_ccs_gcc.o
 .debug_aranges
                0x00000000000001d0       0x38 ./touch.o
 .debug_aranges
                0x0000000000000208       0x58 ./touch_isr.o
 .debug_aranges
                0x0000000000000260       0xa0 ./ustdlib.o

.debug_ranges   0x0000000000000000      0x268
 .debug_ranges  0x0000000000000000       0x70 ./Kentec320x240x16_ssd2119_spi.o
 .debug_ranges  0x0000000000000070       0x48 ./LCD.o
 .debug_ranges  0x00000000000000b8       0x20 ./LCD_stairs.o
 .debug_ranges  0x00000000000000d8       0x68 ./UART.o
 .debug_ranges  0x0000000000000140       0x28 ./tm4c123gh6pm_startup_ccs_gcc.o
 .debug_ranges  0x0000000000000168       0x28 ./touch.o
 .debug_ranges  0x0000000000000190       0x48 ./touch_isr.o
 .debug_ranges  0x00000000000001d8       0x90 ./ustdlib.o

.debug_line     0x0000000000000000     0x1e2a
 .debug_line    0x0000000000000000      0x368 ./Kentec320x240x16_ssd2119_spi.o
 .debug_line    0x0000000000000368      0x482 ./LCD.o
 .debug_line    0x00000000000007ea      0x372 ./LCD_stairs.o
 .debug_line    0x0000000000000b5c      0x3e9 ./UART.o
 .debug_line    0x0000000000000f45      0x152 ./images.o
 .debug_line    0x0000000000001097      0x177 ./tm4c123gh6pm_startup_ccs_gcc.o
 .debug_line    0x000000000000120e      0x278 ./touch.o
 .debug_line    0x0000000000001486      0x4a3 ./touch_isr.o
 .debug_line    0x0000000000001929      0x501 ./ustdlib.o

.debug_str      0x0000000000000000     0x1dc2
 .debug_str     0x0000000000000000      0xd0d ./Kentec320x240x16_ssd2119_spi.o
                                        0xd82 (size before relaxing)
 .debug_str     0x0000000000000d0d      0x844 ./LCD.o
                                       0x1425 (size before relaxing)
 .debug_str     0x0000000000001551      0x181 ./LCD_stairs.o
                                       0x13ed (size before relaxing)
 .debug_str     0x00000000000016d2      0x16f ./UART.o
                                        0x78f (size before relaxing)
 .debug_str     0x0000000000001841       0xbf ./images.o
                                        0xb0e (size before relaxing)
 .debug_str     0x0000000000001900       0xbb ./tm4c123gh6pm_startup_ccs_gcc.o
                                        0x26c (size before relaxing)
 .debug_str     0x00000000000019bb       0xde ./touch.o
                                        0xcbb (size before relaxing)
 .debug_str     0x0000000000001a99      0x18c ./touch_isr.o
                                       0x161c (size before relaxing)
 .debug_str     0x0000000000001c25      0x19d ./ustdlib.o
                                        0x7ec (size before relaxing)

.debug_frame    0x0000000000000000      0xf64
 .debug_frame   0x0000000000000000      0x1e4 ./Kentec320x240x16_ssd2119_spi.o
 .debug_frame   0x00000000000001e4      0x158 ./LCD.o
 .debug_frame   0x000000000000033c       0x70 ./LCD_stairs.o
 .debug_frame   0x00000000000003ac      0x1cc ./UART.o
 .debug_frame   0x0000000000000578       0x7c ./tm4c123gh6pm_startup_ccs_gcc.o
 .debug_frame   0x00000000000005f4       0xa0 ./touch.o
 .debug_frame   0x0000000000000694      0x140 ./touch_isr.o
 .debug_frame   0x00000000000007d4      0x2bc ./ustdlib.o
 .debug_frame   0x0000000000000a90       0x28 /home/kaviya/ti/ccsv7/tools/compiler/gcc-arm-none-eabi-6-2017-q1-update/bin/../lib/gcc/arm-none-eabi/6.3.1/../../../../arm-none-eabi/lib/thumb/v7e-m/fpv4-sp/hard/libc.a(lib_a-exit.o)
 .debug_frame   0x0000000000000ab8       0x2c /home/kaviya/ti/ccsv7/tools/compiler/gcc-arm-none-eabi-6-2017-q1-update/bin/../lib/gcc/arm-none-eabi/6.3.1/../../../../arm-none-eabi/lib/thumb/v7e-m/fpv4-sp/hard/libc.a(lib_a-init.o)
 .debug_frame   0x0000000000000ae4       0x3c /home/kaviya/ti/ccsv7/tools/compiler/gcc-arm-none-eabi-6-2017-q1-update/bin/../lib/gcc/arm-none-eabi/6.3.1/../../../../arm-none-eabi/lib/thumb/v7e-m/fpv4-sp/hard/libc.a(lib_a-itoa.o)
 .debug_frame   0x0000000000000b20       0x34 /home/kaviya/ti/ccsv7/tools/compiler/gcc-arm-none-eabi-6-2017-q1-update/bin/../lib/gcc/arm-none-eabi/6.3.1/../../../../arm-none-eabi/lib/thumb/v7e-m/fpv4-sp/hard/libc.a(lib_a-memset.o)
 .debug_frame   0x0000000000000b54       0x4c /home/kaviya/ti/ccsv7/tools/compiler/gcc-arm-none-eabi-6-2017-q1-update/bin/../lib/gcc/arm-none-eabi/6.3.1/../../../../arm-none-eabi/lib/thumb/v7e-m/fpv4-sp/hard/libc.a(lib_a-utoa.o)
 .debug_frame   0x0000000000000ba0       0x5c /home/kaviya/ti/ccsv7/tools/compiler/gcc-arm-none-eabi-6-2017-q1-update/bin/../lib/gcc/arm-none-eabi/6.3.1/../../../../arm-none-eabi/lib/thumb/v7e-m/fpv4-sp/hard/libc.a(lib_a-__call_atexit.o)
 .debug_frame   0x0000000000000bfc       0x20 /home/kaviya/ti/ccsv7/tools/compiler/gcc-arm-none-eabi-6-2017-q1-update/bin/../lib/gcc/arm-none-eabi/6.3.1/../../../../arm-none-eabi/lib/thumb/v7e-m/fpv4-sp/hard/libc.a(lib_a-atexit.o)
 .debug_frame   0x0000000000000c1c       0x34 /home/kaviya/ti/ccsv7/tools/compiler/gcc-arm-none-eabi-6-2017-q1-update/bin/../lib/gcc/arm-none-eabi/6.3.1/../../../../arm-none-eabi/lib/thumb/v7e-m/fpv4-sp/hard/libc.a(lib_a-fini.o)
 .debug_frame   0x0000000000000c50       0xb0 /home/kaviya/ti/ccsv7/tools/compiler/gcc-arm-none-eabi-6-2017-q1-update/bin/../lib/gcc/arm-none-eabi/6.3.1/../../../../arm-none-eabi/lib/thumb/v7e-m/fpv4-sp/hard/libc.a(lib_a-lock.o)
 .debug_frame   0x0000000000000d00       0x34 /home/kaviya/ti/ccsv7/tools/compiler/gcc-arm-none-eabi-6-2017-q1-update/bin/../lib/gcc/arm-none-eabi/6.3.1/../../../../arm-none-eabi/lib/thumb/v7e-m/fpv4-sp/hard/libc.a(lib_a-__atexit.o)
 .debug_frame   0x0000000000000d34       0x20 /home/kaviya/ti/ccsv7/tools/compiler/gcc-arm-none-eabi-6-2017-q1-update/bin/../lib/gcc/arm-none-eabi/6.3.1/../../../../arm-none-eabi/lib/thumb/v7e-m/fpv4-sp/hard/librdimon.a(rdimon-_exit.o)
 .debug_frame   0x0000000000000d54       0x2c /home/kaviya/ti/ccsv7/tools/compiler/gcc-arm-none-eabi-6-2017-q1-update/bin/../lib/gcc/arm-none-eabi/6.3.1/../../../../arm-none-eabi/lib/thumb/v7e-m/fpv4-sp/hard/librdimon.a(rdimon-_kill.o)
 .debug_frame   0x0000000000000d80       0xac /home/kaviya/ti/ccsv7/tools/compiler/gcc-arm-none-eabi-6-2017-q1-update/bin/../lib/gcc/arm-none-eabi/6.3.1/thumb/v7e-m/fpv4-sp/hard/libgcc.a(_arm_addsubdf3.o)
 .debug_frame   0x0000000000000e2c       0x50 /home/kaviya/ti/ccsv7/tools/compiler/gcc-arm-none-eabi-6-2017-q1-update/bin/../lib/gcc/arm-none-eabi/6.3.1/thumb/v7e-m/fpv4-sp/hard/libgcc.a(_arm_muldivdf3.o)
 .debug_frame   0x0000000000000e7c       0xc4 /home/kaviya/ti/ccsv7/tools/compiler/gcc-arm-none-eabi-6-2017-q1-update/bin/../lib/gcc/arm-none-eabi/6.3.1/thumb/v7e-m/fpv4-sp/hard/libgcc.a(_arm_cmpdf2.o)
 .debug_frame   0x0000000000000f40       0x24 /home/kaviya/ti/ccsv7/tools/compiler/gcc-arm-none-eabi-6-2017-q1-update/bin/../lib/gcc/arm-none-eabi/6.3.1/thumb/v7e-m/fpv4-sp/hard/libgcc.a(_arm_fixdfsi.o)
