Archive member included to satisfy reference by file (symbol)

/home/kaviya/ti/ccsv7/tools/compiler/gcc-arm-none-eabi-6-2017-q1-update/bin/../lib/gcc/arm-none-eabi/6.3.1/../../../../arm-none-eabi/lib/thumb/v7e-m/fpv4-sp/hard/libc.a(lib_a-exit.o)
                              /home/kaviya/ti/ccsv7/tools/compiler/gcc-arm-none-eabi-6-2017-q1-update/bin/../lib/gcc/arm-none-eabi/6.3.1/../../../../arm-none-eabi/lib/thumb/v7e-m/fpv4-sp/hard/crt0.o (exit)
/home/kaviya/ti/ccsv7/tools/compiler/gcc-arm-none-eabi-6-2017-q1-update/bin/../lib/gcc/arm-none-eabi/6.3.1/../../../../arm-none-eabi/lib/thumb/v7e-m/fpv4-sp/hard/libc.a(lib_a-impure.o)
                              /home/kaviya/ti/ccsv7/tools/compiler/gcc-arm-none-eabi-6-2017-q1-update/bin/../lib/gcc/arm-none-eabi/6.3.1/../../../../arm-none-eabi/lib/thumb/v7e-m/fpv4-sp/hard/libc.a(lib_a-exit.o) (_global_impure_ptr)
/home/kaviya/ti/ccsv7/tools/compiler/gcc-arm-none-eabi-6-2017-q1-update/bin/../lib/gcc/arm-none-eabi/6.3.1/../../../../arm-none-eabi/lib/thumb/v7e-m/fpv4-sp/hard/libc.a(lib_a-init.o)
                              /home/kaviya/ti/ccsv7/tools/compiler/gcc-arm-none-eabi-6-2017-q1-update/bin/../lib/gcc/arm-none-eabi/6.3.1/../../../../arm-none-eabi/lib/thumb/v7e-m/fpv4-sp/hard/crt0.o (__libc_init_array)
/home/kaviya/ti/ccsv7/tools/compiler/gcc-arm-none-eabi-6-2017-q1-update/bin/../lib/gcc/arm-none-eabi/6.3.1/../../../../arm-none-eabi/lib/thumb/v7e-m/fpv4-sp/hard/libc.a(lib_a-itoa.o)
                              ./UART.o (__itoa)
/home/kaviya/ti/ccsv7/tools/compiler/gcc-arm-none-eabi-6-2017-q1-update/bin/../lib/gcc/arm-none-eabi/6.3.1/../../../../arm-none-eabi/lib/thumb/v7e-m/fpv4-sp/hard/libc.a(lib_a-memcpy.o)
                              ./LCD_stairs.o (memcpy)
/home/kaviya/ti/ccsv7/tools/compiler/gcc-arm-none-eabi-6-2017-q1-update/bin/../lib/gcc/arm-none-eabi/6.3.1/../../../../arm-none-eabi/lib/thumb/v7e-m/fpv4-sp/hard/libc.a(lib_a-memset.o)
                              /home/kaviya/ti/ccsv7/tools/compiler/gcc-arm-none-eabi-6-2017-q1-update/bin/../lib/gcc/arm-none-eabi/6.3.1/../../../../arm-none-eabi/lib/thumb/v7e-m/fpv4-sp/hard/crt0.o (memset)
/home/kaviya/ti/ccsv7/tools/compiler/gcc-arm-none-eabi-6-2017-q1-update/bin/../lib/gcc/arm-none-eabi/6.3.1/../../../../arm-none-eabi/lib/thumb/v7e-m/fpv4-sp/hard/libc.a(lib_a-printf.o)
                              ./LCD_stairs.o (printf)
/home/kaviya/ti/ccsv7/tools/compiler/gcc-arm-none-eabi-6-2017-q1-update/bin/../lib/gcc/arm-none-eabi/6.3.1/../../../../arm-none-eabi/lib/thumb/v7e-m/fpv4-sp/hard/libc.a(lib_a-strlen.o)
                              ./UART.o (strlen)
/home/kaviya/ti/ccsv7/tools/compiler/gcc-arm-none-eabi-6-2017-q1-update/bin/../lib/gcc/arm-none-eabi/6.3.1/../../../../arm-none-eabi/lib/thumb/v7e-m/fpv4-sp/hard/libc.a(lib_a-utoa.o)
                              /home/kaviya/ti/ccsv7/tools/compiler/gcc-arm-none-eabi-6-2017-q1-update/bin/../lib/gcc/arm-none-eabi/6.3.1/../../../../arm-none-eabi/lib/thumb/v7e-m/fpv4-sp/hard/libc.a(lib_a-itoa.o) (__utoa)
/home/kaviya/ti/ccsv7/tools/compiler/gcc-arm-none-eabi-6-2017-q1-update/bin/../lib/gcc/arm-none-eabi/6.3.1/../../../../arm-none-eabi/lib/thumb/v7e-m/fpv4-sp/hard/libc.a(lib_a-vfprintf.o)
                              /home/kaviya/ti/ccsv7/tools/compiler/gcc-arm-none-eabi-6-2017-q1-update/bin/../lib/gcc/arm-none-eabi/6.3.1/../../../../arm-none-eabi/lib/thumb/v7e-m/fpv4-sp/hard/libc.a(lib_a-printf.o) (_vfprintf_r)
/home/kaviya/ti/ccsv7/tools/compiler/gcc-arm-none-eabi-6-2017-q1-update/bin/../lib/gcc/arm-none-eabi/6.3.1/../../../../arm-none-eabi/lib/thumb/v7e-m/fpv4-sp/hard/libc.a(lib_a-wsetup.o)
                              /home/kaviya/ti/ccsv7/tools/compiler/gcc-arm-none-eabi-6-2017-q1-update/bin/../lib/gcc/arm-none-eabi/6.3.1/../../../../arm-none-eabi/lib/thumb/v7e-m/fpv4-sp/hard/libc.a(lib_a-vfprintf.o) (__swsetup_r)
/home/kaviya/ti/ccsv7/tools/compiler/gcc-arm-none-eabi-6-2017-q1-update/bin/../lib/gcc/arm-none-eabi/6.3.1/../../../../arm-none-eabi/lib/thumb/v7e-m/fpv4-sp/hard/libc.a(lib_a-__call_atexit.o)
                              /home/kaviya/ti/ccsv7/tools/compiler/gcc-arm-none-eabi-6-2017-q1-update/bin/../lib/gcc/arm-none-eabi/6.3.1/../../../../arm-none-eabi/lib/thumb/v7e-m/fpv4-sp/hard/libc.a(lib_a-exit.o) (__call_exitprocs)
/home/kaviya/ti/ccsv7/tools/compiler/gcc-arm-none-eabi-6-2017-q1-update/bin/../lib/gcc/arm-none-eabi/6.3.1/../../../../arm-none-eabi/lib/thumb/v7e-m/fpv4-sp/hard/libc.a(lib_a-atexit.o)
                              /home/kaviya/ti/ccsv7/tools/compiler/gcc-arm-none-eabi-6-2017-q1-update/bin/../lib/gcc/arm-none-eabi/6.3.1/../../../../arm-none-eabi/lib/thumb/v7e-m/fpv4-sp/hard/libc.a(lib_a-__call_atexit.o) (atexit)
/home/kaviya/ti/ccsv7/tools/compiler/gcc-arm-none-eabi-6-2017-q1-update/bin/../lib/gcc/arm-none-eabi/6.3.1/../../../../arm-none-eabi/lib/thumb/v7e-m/fpv4-sp/hard/libc.a(lib_a-dtoa.o)
                              /home/kaviya/ti/ccsv7/tools/compiler/gcc-arm-none-eabi-6-2017-q1-update/bin/../lib/gcc/arm-none-eabi/6.3.1/../../../../arm-none-eabi/lib/thumb/v7e-m/fpv4-sp/hard/libc.a(lib_a-vfprintf.o) (_dtoa_r)
/home/kaviya/ti/ccsv7/tools/compiler/gcc-arm-none-eabi-6-2017-q1-update/bin/../lib/gcc/arm-none-eabi/6.3.1/../../../../arm-none-eabi/lib/thumb/v7e-m/fpv4-sp/hard/libc.a(lib_a-fflush.o)
                              /home/kaviya/ti/ccsv7/tools/compiler/gcc-arm-none-eabi-6-2017-q1-update/bin/../lib/gcc/arm-none-eabi/6.3.1/../../../../arm-none-eabi/lib/thumb/v7e-m/fpv4-sp/hard/libc.a(lib_a-vfprintf.o) (_fflush_r)
/home/kaviya/ti/ccsv7/tools/compiler/gcc-arm-none-eabi-6-2017-q1-update/bin/../lib/gcc/arm-none-eabi/6.3.1/../../../../arm-none-eabi/lib/thumb/v7e-m/fpv4-sp/hard/libc.a(lib_a-findfp.o)
                              /home/kaviya/ti/ccsv7/tools/compiler/gcc-arm-none-eabi-6-2017-q1-update/bin/../lib/gcc/arm-none-eabi/6.3.1/../../../../arm-none-eabi/lib/thumb/v7e-m/fpv4-sp/hard/libc.a(lib_a-vfprintf.o) (__sinit)
/home/kaviya/ti/ccsv7/tools/compiler/gcc-arm-none-eabi-6-2017-q1-update/bin/../lib/gcc/arm-none-eabi/6.3.1/../../../../arm-none-eabi/lib/thumb/v7e-m/fpv4-sp/hard/libc.a(lib_a-fini.o)
                              /home/kaviya/ti/ccsv7/tools/compiler/gcc-arm-none-eabi-6-2017-q1-update/bin/../lib/gcc/arm-none-eabi/6.3.1/../../../../arm-none-eabi/lib/thumb/v7e-m/fpv4-sp/hard/libc.a(lib_a-__call_atexit.o) (__libc_fini_array)
/home/kaviya/ti/ccsv7/tools/compiler/gcc-arm-none-eabi-6-2017-q1-update/bin/../lib/gcc/arm-none-eabi/6.3.1/../../../../arm-none-eabi/lib/thumb/v7e-m/fpv4-sp/hard/libc.a(lib_a-freer.o)
                              /home/kaviya/ti/ccsv7/tools/compiler/gcc-arm-none-eabi-6-2017-q1-update/bin/../lib/gcc/arm-none-eabi/6.3.1/../../../../arm-none-eabi/lib/thumb/v7e-m/fpv4-sp/hard/libc.a(lib_a-wsetup.o) (_free_r)
/home/kaviya/ti/ccsv7/tools/compiler/gcc-arm-none-eabi-6-2017-q1-update/bin/../lib/gcc/arm-none-eabi/6.3.1/../../../../arm-none-eabi/lib/thumb/v7e-m/fpv4-sp/hard/libc.a(lib_a-fwalk.o)
                              /home/kaviya/ti/ccsv7/tools/compiler/gcc-arm-none-eabi-6-2017-q1-update/bin/../lib/gcc/arm-none-eabi/6.3.1/../../../../arm-none-eabi/lib/thumb/v7e-m/fpv4-sp/hard/libc.a(lib_a-findfp.o) (_fwalk)
/home/kaviya/ti/ccsv7/tools/compiler/gcc-arm-none-eabi-6-2017-q1-update/bin/../lib/gcc/arm-none-eabi/6.3.1/../../../../arm-none-eabi/lib/thumb/v7e-m/fpv4-sp/hard/libc.a(lib_a-localeconv.o)
                              /home/kaviya/ti/ccsv7/tools/compiler/gcc-arm-none-eabi-6-2017-q1-update/bin/../lib/gcc/arm-none-eabi/6.3.1/../../../../arm-none-eabi/lib/thumb/v7e-m/fpv4-sp/hard/libc.a(lib_a-vfprintf.o) (_localeconv_r)
/home/kaviya/ti/ccsv7/tools/compiler/gcc-arm-none-eabi-6-2017-q1-update/bin/../lib/gcc/arm-none-eabi/6.3.1/../../../../arm-none-eabi/lib/thumb/v7e-m/fpv4-sp/hard/libc.a(lib_a-lock.o)
                              /home/kaviya/ti/ccsv7/tools/compiler/gcc-arm-none-eabi-6-2017-q1-update/bin/../lib/gcc/arm-none-eabi/6.3.1/../../../../arm-none-eabi/lib/thumb/v7e-m/fpv4-sp/hard/libc.a(lib_a-vfprintf.o) (__retarget_lock_init_recursive)
/home/kaviya/ti/ccsv7/tools/compiler/gcc-arm-none-eabi-6-2017-q1-update/bin/../lib/gcc/arm-none-eabi/6.3.1/../../../../arm-none-eabi/lib/thumb/v7e-m/fpv4-sp/hard/libc.a(lib_a-makebuf.o)
                              /home/kaviya/ti/ccsv7/tools/compiler/gcc-arm-none-eabi-6-2017-q1-update/bin/../lib/gcc/arm-none-eabi/6.3.1/../../../../arm-none-eabi/lib/thumb/v7e-m/fpv4-sp/hard/libc.a(lib_a-wsetup.o) (__smakebuf_r)
/home/kaviya/ti/ccsv7/tools/compiler/gcc-arm-none-eabi-6-2017-q1-update/bin/../lib/gcc/arm-none-eabi/6.3.1/../../../../arm-none-eabi/lib/thumb/v7e-m/fpv4-sp/hard/libc.a(lib_a-mallocr.o)
                              /home/kaviya/ti/ccsv7/tools/compiler/gcc-arm-none-eabi-6-2017-q1-update/bin/../lib/gcc/arm-none-eabi/6.3.1/../../../../arm-none-eabi/lib/thumb/v7e-m/fpv4-sp/hard/libc.a(lib_a-findfp.o) (_malloc_r)
/home/kaviya/ti/ccsv7/tools/compiler/gcc-arm-none-eabi-6-2017-q1-update/bin/../lib/gcc/arm-none-eabi/6.3.1/../../../../arm-none-eabi/lib/thumb/v7e-m/fpv4-sp/hard/libc.a(lib_a-memchr.o)
                              /home/kaviya/ti/ccsv7/tools/compiler/gcc-arm-none-eabi-6-2017-q1-update/bin/../lib/gcc/arm-none-eabi/6.3.1/../../../../arm-none-eabi/lib/thumb/v7e-m/fpv4-sp/hard/libc.a(lib_a-vfprintf.o) (memchr)
/home/kaviya/ti/ccsv7/tools/compiler/gcc-arm-none-eabi-6-2017-q1-update/bin/../lib/gcc/arm-none-eabi/6.3.1/../../../../arm-none-eabi/lib/thumb/v7e-m/fpv4-sp/hard/libc.a(lib_a-mlock.o)
                              /home/kaviya/ti/ccsv7/tools/compiler/gcc-arm-none-eabi-6-2017-q1-update/bin/../lib/gcc/arm-none-eabi/6.3.1/../../../../arm-none-eabi/lib/thumb/v7e-m/fpv4-sp/hard/libc.a(lib_a-freer.o) (__malloc_lock)
/home/kaviya/ti/ccsv7/tools/compiler/gcc-arm-none-eabi-6-2017-q1-update/bin/../lib/gcc/arm-none-eabi/6.3.1/../../../../arm-none-eabi/lib/thumb/v7e-m/fpv4-sp/hard/libc.a(lib_a-mprec.o)
                              /home/kaviya/ti/ccsv7/tools/compiler/gcc-arm-none-eabi-6-2017-q1-update/bin/../lib/gcc/arm-none-eabi/6.3.1/../../../../arm-none-eabi/lib/thumb/v7e-m/fpv4-sp/hard/libc.a(lib_a-dtoa.o) (_Balloc)
/home/kaviya/ti/ccsv7/tools/compiler/gcc-arm-none-eabi-6-2017-q1-update/bin/../lib/gcc/arm-none-eabi/6.3.1/../../../../arm-none-eabi/lib/thumb/v7e-m/fpv4-sp/hard/libc.a(lib_a-sbrkr.o)
                              /home/kaviya/ti/ccsv7/tools/compiler/gcc-arm-none-eabi-6-2017-q1-update/bin/../lib/gcc/arm-none-eabi/6.3.1/../../../../arm-none-eabi/lib/thumb/v7e-m/fpv4-sp/hard/libc.a(lib_a-freer.o) (_sbrk_r)
/home/kaviya/ti/ccsv7/tools/compiler/gcc-arm-none-eabi-6-2017-q1-update/bin/../lib/gcc/arm-none-eabi/6.3.1/../../../../arm-none-eabi/lib/thumb/v7e-m/fpv4-sp/hard/libc.a(lib_a-stdio.o)
                              /home/kaviya/ti/ccsv7/tools/compiler/gcc-arm-none-eabi-6-2017-q1-update/bin/../lib/gcc/arm-none-eabi/6.3.1/../../../../arm-none-eabi/lib/thumb/v7e-m/fpv4-sp/hard/libc.a(lib_a-findfp.o) (__sread)
/home/kaviya/ti/ccsv7/tools/compiler/gcc-arm-none-eabi-6-2017-q1-update/bin/../lib/gcc/arm-none-eabi/6.3.1/../../../../arm-none-eabi/lib/thumb/v7e-m/fpv4-sp/hard/libc.a(lib_a-vfiprintf.o)
                              /home/kaviya/ti/ccsv7/tools/compiler/gcc-arm-none-eabi-6-2017-q1-update/bin/../lib/gcc/arm-none-eabi/6.3.1/../../../../arm-none-eabi/lib/thumb/v7e-m/fpv4-sp/hard/libc.a(lib_a-vfprintf.o) (__sprint_r)
/home/kaviya/ti/ccsv7/tools/compiler/gcc-arm-none-eabi-6-2017-q1-update/bin/../lib/gcc/arm-none-eabi/6.3.1/../../../../arm-none-eabi/lib/thumb/v7e-m/fpv4-sp/hard/libc.a(lib_a-writer.o)
                              /home/kaviya/ti/ccsv7/tools/compiler/gcc-arm-none-eabi-6-2017-q1-update/bin/../lib/gcc/arm-none-eabi/6.3.1/../../../../arm-none-eabi/lib/thumb/v7e-m/fpv4-sp/hard/libc.a(lib_a-stdio.o) (_write_r)
/home/kaviya/ti/ccsv7/tools/compiler/gcc-arm-none-eabi-6-2017-q1-update/bin/../lib/gcc/arm-none-eabi/6.3.1/../../../../arm-none-eabi/lib/thumb/v7e-m/fpv4-sp/hard/libc.a(lib_a-__atexit.o)
                              /home/kaviya/ti/ccsv7/tools/compiler/gcc-arm-none-eabi-6-2017-q1-update/bin/../lib/gcc/arm-none-eabi/6.3.1/../../../../arm-none-eabi/lib/thumb/v7e-m/fpv4-sp/hard/libc.a(lib_a-atexit.o) (__register_exitproc)
/home/kaviya/ti/ccsv7/tools/compiler/gcc-arm-none-eabi-6-2017-q1-update/bin/../lib/gcc/arm-none-eabi/6.3.1/../../../../arm-none-eabi/lib/thumb/v7e-m/fpv4-sp/hard/libc.a(lib_a-callocr.o)
                              /home/kaviya/ti/ccsv7/tools/compiler/gcc-arm-none-eabi-6-2017-q1-update/bin/../lib/gcc/arm-none-eabi/6.3.1/../../../../arm-none-eabi/lib/thumb/v7e-m/fpv4-sp/hard/libc.a(lib_a-mprec.o) (_calloc_r)
/home/kaviya/ti/ccsv7/tools/compiler/gcc-arm-none-eabi-6-2017-q1-update/bin/../lib/gcc/arm-none-eabi/6.3.1/../../../../arm-none-eabi/lib/thumb/v7e-m/fpv4-sp/hard/libc.a(lib_a-closer.o)
                              /home/kaviya/ti/ccsv7/tools/compiler/gcc-arm-none-eabi-6-2017-q1-update/bin/../lib/gcc/arm-none-eabi/6.3.1/../../../../arm-none-eabi/lib/thumb/v7e-m/fpv4-sp/hard/libc.a(lib_a-stdio.o) (_close_r)
/home/kaviya/ti/ccsv7/tools/compiler/gcc-arm-none-eabi-6-2017-q1-update/bin/../lib/gcc/arm-none-eabi/6.3.1/../../../../arm-none-eabi/lib/thumb/v7e-m/fpv4-sp/hard/libc.a(lib_a-fclose.o)
                              /home/kaviya/ti/ccsv7/tools/compiler/gcc-arm-none-eabi-6-2017-q1-update/bin/../lib/gcc/arm-none-eabi/6.3.1/../../../../arm-none-eabi/lib/thumb/v7e-m/fpv4-sp/hard/libc.a(lib_a-findfp.o) (_fclose_r)
/home/kaviya/ti/ccsv7/tools/compiler/gcc-arm-none-eabi-6-2017-q1-update/bin/../lib/gcc/arm-none-eabi/6.3.1/../../../../arm-none-eabi/lib/thumb/v7e-m/fpv4-sp/hard/libc.a(lib_a-fputwc.o)
                              /home/kaviya/ti/ccsv7/tools/compiler/gcc-arm-none-eabi-6-2017-q1-update/bin/../lib/gcc/arm-none-eabi/6.3.1/../../../../arm-none-eabi/lib/thumb/v7e-m/fpv4-sp/hard/libc.a(lib_a-vfiprintf.o) (_fputwc_r)
/home/kaviya/ti/ccsv7/tools/compiler/gcc-arm-none-eabi-6-2017-q1-update/bin/../lib/gcc/arm-none-eabi/6.3.1/../../../../arm-none-eabi/lib/thumb/v7e-m/fpv4-sp/hard/libc.a(lib_a-fstatr.o)
                              /home/kaviya/ti/ccsv7/tools/compiler/gcc-arm-none-eabi-6-2017-q1-update/bin/../lib/gcc/arm-none-eabi/6.3.1/../../../../arm-none-eabi/lib/thumb/v7e-m/fpv4-sp/hard/libc.a(lib_a-makebuf.o) (_fstat_r)
/home/kaviya/ti/ccsv7/tools/compiler/gcc-arm-none-eabi-6-2017-q1-update/bin/../lib/gcc/arm-none-eabi/6.3.1/../../../../arm-none-eabi/lib/thumb/v7e-m/fpv4-sp/hard/libc.a(lib_a-fvwrite.o)
                              /home/kaviya/ti/ccsv7/tools/compiler/gcc-arm-none-eabi-6-2017-q1-update/bin/../lib/gcc/arm-none-eabi/6.3.1/../../../../arm-none-eabi/lib/thumb/v7e-m/fpv4-sp/hard/libc.a(lib_a-vfiprintf.o) (__sfvwrite_r)
/home/kaviya/ti/ccsv7/tools/compiler/gcc-arm-none-eabi-6-2017-q1-update/bin/../lib/gcc/arm-none-eabi/6.3.1/../../../../arm-none-eabi/lib/thumb/v7e-m/fpv4-sp/hard/libc.a(lib_a-isattyr.o)
                              /home/kaviya/ti/ccsv7/tools/compiler/gcc-arm-none-eabi-6-2017-q1-update/bin/../lib/gcc/arm-none-eabi/6.3.1/../../../../arm-none-eabi/lib/thumb/v7e-m/fpv4-sp/hard/libc.a(lib_a-makebuf.o) (_isatty_r)
/home/kaviya/ti/ccsv7/tools/compiler/gcc-arm-none-eabi-6-2017-q1-update/bin/../lib/gcc/arm-none-eabi/6.3.1/../../../../arm-none-eabi/lib/thumb/v7e-m/fpv4-sp/hard/libc.a(lib_a-locale.o)
                              /home/kaviya/ti/ccsv7/tools/compiler/gcc-arm-none-eabi-6-2017-q1-update/bin/../lib/gcc/arm-none-eabi/6.3.1/../../../../arm-none-eabi/lib/thumb/v7e-m/fpv4-sp/hard/libc.a(lib_a-fputwc.o) (__locale_mb_cur_max)
/home/kaviya/ti/ccsv7/tools/compiler/gcc-arm-none-eabi-6-2017-q1-update/bin/../lib/gcc/arm-none-eabi/6.3.1/../../../../arm-none-eabi/lib/thumb/v7e-m/fpv4-sp/hard/libc.a(lib_a-lseekr.o)
                              /home/kaviya/ti/ccsv7/tools/compiler/gcc-arm-none-eabi-6-2017-q1-update/bin/../lib/gcc/arm-none-eabi/6.3.1/../../../../arm-none-eabi/lib/thumb/v7e-m/fpv4-sp/hard/libc.a(lib_a-stdio.o) (_lseek_r)
/home/kaviya/ti/ccsv7/tools/compiler/gcc-arm-none-eabi-6-2017-q1-update/bin/../lib/gcc/arm-none-eabi/6.3.1/../../../../arm-none-eabi/lib/thumb/v7e-m/fpv4-sp/hard/libc.a(lib_a-mbtowc_r.o)
                              /home/kaviya/ti/ccsv7/tools/compiler/gcc-arm-none-eabi-6-2017-q1-update/bin/../lib/gcc/arm-none-eabi/6.3.1/../../../../arm-none-eabi/lib/thumb/v7e-m/fpv4-sp/hard/libc.a(lib_a-locale.o) (__ascii_mbtowc)
/home/kaviya/ti/ccsv7/tools/compiler/gcc-arm-none-eabi-6-2017-q1-update/bin/../lib/gcc/arm-none-eabi/6.3.1/../../../../arm-none-eabi/lib/thumb/v7e-m/fpv4-sp/hard/libc.a(lib_a-memmove.o)
                              /home/kaviya/ti/ccsv7/tools/compiler/gcc-arm-none-eabi-6-2017-q1-update/bin/../lib/gcc/arm-none-eabi/6.3.1/../../../../arm-none-eabi/lib/thumb/v7e-m/fpv4-sp/hard/libc.a(lib_a-fvwrite.o) (memmove)
/home/kaviya/ti/ccsv7/tools/compiler/gcc-arm-none-eabi-6-2017-q1-update/bin/../lib/gcc/arm-none-eabi/6.3.1/../../../../arm-none-eabi/lib/thumb/v7e-m/fpv4-sp/hard/libc.a(lib_a-readr.o)
                              /home/kaviya/ti/ccsv7/tools/compiler/gcc-arm-none-eabi-6-2017-q1-update/bin/../lib/gcc/arm-none-eabi/6.3.1/../../../../arm-none-eabi/lib/thumb/v7e-m/fpv4-sp/hard/libc.a(lib_a-stdio.o) (_read_r)
/home/kaviya/ti/ccsv7/tools/compiler/gcc-arm-none-eabi-6-2017-q1-update/bin/../lib/gcc/arm-none-eabi/6.3.1/../../../../arm-none-eabi/lib/thumb/v7e-m/fpv4-sp/hard/libc.a(lib_a-reallocr.o)
                              /home/kaviya/ti/ccsv7/tools/compiler/gcc-arm-none-eabi-6-2017-q1-update/bin/../lib/gcc/arm-none-eabi/6.3.1/../../../../arm-none-eabi/lib/thumb/v7e-m/fpv4-sp/hard/libc.a(lib_a-fvwrite.o) (_realloc_r)
/home/kaviya/ti/ccsv7/tools/compiler/gcc-arm-none-eabi-6-2017-q1-update/bin/../lib/gcc/arm-none-eabi/6.3.1/../../../../arm-none-eabi/lib/thumb/v7e-m/fpv4-sp/hard/libc.a(lib_a-reent.o)
                              /home/kaviya/ti/ccsv7/tools/compiler/gcc-arm-none-eabi-6-2017-q1-update/bin/../lib/gcc/arm-none-eabi/6.3.1/../../../../arm-none-eabi/lib/thumb/v7e-m/fpv4-sp/hard/libc.a(lib_a-sbrkr.o) (errno)
/home/kaviya/ti/ccsv7/tools/compiler/gcc-arm-none-eabi-6-2017-q1-update/bin/../lib/gcc/arm-none-eabi/6.3.1/../../../../arm-none-eabi/lib/thumb/v7e-m/fpv4-sp/hard/libc.a(lib_a-strcmp.o)
                              /home/kaviya/ti/ccsv7/tools/compiler/gcc-arm-none-eabi-6-2017-q1-update/bin/../lib/gcc/arm-none-eabi/6.3.1/../../../../arm-none-eabi/lib/thumb/v7e-m/fpv4-sp/hard/libc.a(lib_a-locale.o) (strcmp)
/home/kaviya/ti/ccsv7/tools/compiler/gcc-arm-none-eabi-6-2017-q1-update/bin/../lib/gcc/arm-none-eabi/6.3.1/../../../../arm-none-eabi/lib/thumb/v7e-m/fpv4-sp/hard/libc.a(lib_a-wbuf.o)
                              /home/kaviya/ti/ccsv7/tools/compiler/gcc-arm-none-eabi-6-2017-q1-update/bin/../lib/gcc/arm-none-eabi/6.3.1/../../../../arm-none-eabi/lib/thumb/v7e-m/fpv4-sp/hard/libc.a(lib_a-fputwc.o) (__swbuf_r)
/home/kaviya/ti/ccsv7/tools/compiler/gcc-arm-none-eabi-6-2017-q1-update/bin/../lib/gcc/arm-none-eabi/6.3.1/../../../../arm-none-eabi/lib/thumb/v7e-m/fpv4-sp/hard/libc.a(lib_a-wcrtomb.o)
                              /home/kaviya/ti/ccsv7/tools/compiler/gcc-arm-none-eabi-6-2017-q1-update/bin/../lib/gcc/arm-none-eabi/6.3.1/../../../../arm-none-eabi/lib/thumb/v7e-m/fpv4-sp/hard/libc.a(lib_a-fputwc.o) (_wcrtomb_r)
/home/kaviya/ti/ccsv7/tools/compiler/gcc-arm-none-eabi-6-2017-q1-update/bin/../lib/gcc/arm-none-eabi/6.3.1/../../../../arm-none-eabi/lib/thumb/v7e-m/fpv4-sp/hard/libc.a(lib_a-wctomb_r.o)
                              /home/kaviya/ti/ccsv7/tools/compiler/gcc-arm-none-eabi-6-2017-q1-update/bin/../lib/gcc/arm-none-eabi/6.3.1/../../../../arm-none-eabi/lib/thumb/v7e-m/fpv4-sp/hard/libc.a(lib_a-locale.o) (__ascii_wctomb)
/home/kaviya/ti/ccsv7/tools/compiler/gcc-arm-none-eabi-6-2017-q1-update/bin/../lib/gcc/arm-none-eabi/6.3.1/../../../../arm-none-eabi/lib/thumb/v7e-m/fpv4-sp/hard/libc.a(lib_a-ctype_.o)
                              /home/kaviya/ti/ccsv7/tools/compiler/gcc-arm-none-eabi-6-2017-q1-update/bin/../lib/gcc/arm-none-eabi/6.3.1/../../../../arm-none-eabi/lib/thumb/v7e-m/fpv4-sp/hard/libc.a(lib_a-locale.o) (_ctype_)
/home/kaviya/ti/ccsv7/tools/compiler/gcc-arm-none-eabi-6-2017-q1-update/bin/../lib/gcc/arm-none-eabi/6.3.1/../../../../arm-none-eabi/lib/thumb/v7e-m/fpv4-sp/hard/librdimon.a(rdimon-syscalls.o)
                              /home/kaviya/ti/ccsv7/tools/compiler/gcc-arm-none-eabi-6-2017-q1-update/bin/../lib/gcc/arm-none-eabi/6.3.1/../../../../arm-none-eabi/lib/thumb/v7e-m/fpv4-sp/hard/libc.a(lib_a-readr.o) (_read)
/home/kaviya/ti/ccsv7/tools/compiler/gcc-arm-none-eabi-6-2017-q1-update/bin/../lib/gcc/arm-none-eabi/6.3.1/../../../../arm-none-eabi/lib/thumb/v7e-m/fpv4-sp/hard/librdimon.a(rdimon-_exit.o)
                              /home/kaviya/ti/ccsv7/tools/compiler/gcc-arm-none-eabi-6-2017-q1-update/bin/../lib/gcc/arm-none-eabi/6.3.1/../../../../arm-none-eabi/lib/thumb/v7e-m/fpv4-sp/hard/libc.a(lib_a-exit.o) (_exit)
/home/kaviya/ti/ccsv7/tools/compiler/gcc-arm-none-eabi-6-2017-q1-update/bin/../lib/gcc/arm-none-eabi/6.3.1/../../../../arm-none-eabi/lib/thumb/v7e-m/fpv4-sp/hard/librdimon.a(rdimon-_kill.o)
                              /home/kaviya/ti/ccsv7/tools/compiler/gcc-arm-none-eabi-6-2017-q1-update/bin/../lib/gcc/arm-none-eabi/6.3.1/../../../../arm-none-eabi/lib/thumb/v7e-m/fpv4-sp/hard/librdimon.a(rdimon-_exit.o) (_kill)
/home/kaviya/ti/ccsv7/tools/compiler/gcc-arm-none-eabi-6-2017-q1-update/bin/../lib/gcc/arm-none-eabi/6.3.1/../../../../arm-none-eabi/lib/thumb/v7e-m/fpv4-sp/hard/libc.a(lib_a-errno.o)
                              /home/kaviya/ti/ccsv7/tools/compiler/gcc-arm-none-eabi-6-2017-q1-update/bin/../lib/gcc/arm-none-eabi/6.3.1/../../../../arm-none-eabi/lib/thumb/v7e-m/fpv4-sp/hard/librdimon.a(rdimon-syscalls.o) (__errno)
/home/kaviya/ti/TivaWare_C_Series-2.1.4.178/driverlib/gcc/libdriver.a(fpu.o)
                              ./LCD_stairs.o (FPUEnable)
/home/kaviya/ti/TivaWare_C_Series-2.1.4.178/driverlib/gcc/libdriver.a(gpio.o)
                              ./Kentec320x240x16_ssd2119_spi.o (GPIOPinWrite)
/home/kaviya/ti/TivaWare_C_Series-2.1.4.178/driverlib/gcc/libdriver.a(interrupt.o)
                              /home/kaviya/ti/TivaWare_C_Series-2.1.4.178/driverlib/gcc/libdriver.a(gpio.o) (IntRegister)
/home/kaviya/ti/TivaWare_C_Series-2.1.4.178/driverlib/gcc/libdriver.a(ssi.o)
                              ./Kentec320x240x16_ssd2119_spi.o (SSIConfigSetExpClk)
/home/kaviya/ti/TivaWare_C_Series-2.1.4.178/driverlib/gcc/libdriver.a(sysctl.o)
                              ./Kentec320x240x16_ssd2119_spi.o (SysCtlPeripheralEnable)
/home/kaviya/ti/TivaWare_C_Series-2.1.4.178/driverlib/gcc/libdriver.a(uart.o)
                              ./UART.o (UARTConfigSetExpClk)
/home/kaviya/ti/TivaWare_C_Series-2.1.4.178/driverlib/gcc/libdriver.a(cpu.o)
                              /home/kaviya/ti/TivaWare_C_Series-2.1.4.178/driverlib/gcc/libdriver.a(interrupt.o) (CPUcpsid)
/home/kaviya/ti/TivaWare_C_Series-2.1.4.178/grlib/gcc/libgr.a(context.o)
                              ./LCD_stairs.o (GrContextInit)
/home/kaviya/ti/TivaWare_C_Series-2.1.4.178/grlib/gcc/libgr.a(fontcm12.o)
                              ./LCD.o (g_sFontCm12)
/home/kaviya/ti/TivaWare_C_Series-2.1.4.178/grlib/gcc/libgr.a(line.o)
                              ./LCD.o (GrLineDrawH)
/home/kaviya/ti/TivaWare_C_Series-2.1.4.178/grlib/gcc/libgr.a(rectangle.o)
                              ./LCD.o (GrRectFill)
/home/kaviya/ti/TivaWare_C_Series-2.1.4.178/grlib/gcc/libgr.a(string.o)
                              ./LCD.o (GrStringDraw)
/home/kaviya/ti/TivaWare_C_Series-2.1.4.178/grlib/gcc/libgr.a(charmap.o)
                              /home/kaviya/ti/TivaWare_C_Series-2.1.4.178/grlib/gcc/libgr.a(context.o) (GrMapISO8859_1_Unicode)
/home/kaviya/ti/ccsv7/tools/compiler/gcc-arm-none-eabi-6-2017-q1-update/bin/../lib/gcc/arm-none-eabi/6.3.1/thumb/v7e-m/fpv4-sp/hard/libgcc.a(_arm_addsubdf3.o)
                              ./UART.o (__aeabi_dsub)
/home/kaviya/ti/ccsv7/tools/compiler/gcc-arm-none-eabi-6-2017-q1-update/bin/../lib/gcc/arm-none-eabi/6.3.1/thumb/v7e-m/fpv4-sp/hard/libgcc.a(_arm_muldivdf3.o)
                              ./LCD.o (__aeabi_dmul)
/home/kaviya/ti/ccsv7/tools/compiler/gcc-arm-none-eabi-6-2017-q1-update/bin/../lib/gcc/arm-none-eabi/6.3.1/thumb/v7e-m/fpv4-sp/hard/libgcc.a(_arm_cmpdf2.o)
                              /home/kaviya/ti/ccsv7/tools/compiler/gcc-arm-none-eabi-6-2017-q1-update/bin/../lib/gcc/arm-none-eabi/6.3.1/../../../../arm-none-eabi/lib/thumb/v7e-m/fpv4-sp/hard/libc.a(lib_a-vfprintf.o) (__aeabi_dcmpeq)
/home/kaviya/ti/ccsv7/tools/compiler/gcc-arm-none-eabi-6-2017-q1-update/bin/../lib/gcc/arm-none-eabi/6.3.1/thumb/v7e-m/fpv4-sp/hard/libgcc.a(_arm_unorddf2.o)
                              /home/kaviya/ti/ccsv7/tools/compiler/gcc-arm-none-eabi-6-2017-q1-update/bin/../lib/gcc/arm-none-eabi/6.3.1/../../../../arm-none-eabi/lib/thumb/v7e-m/fpv4-sp/hard/libc.a(lib_a-vfprintf.o) (__aeabi_dcmpun)
/home/kaviya/ti/ccsv7/tools/compiler/gcc-arm-none-eabi-6-2017-q1-update/bin/../lib/gcc/arm-none-eabi/6.3.1/thumb/v7e-m/fpv4-sp/hard/libgcc.a(_arm_fixdfsi.o)
                              ./UART.o (__aeabi_d2iz)
/home/kaviya/ti/ccsv7/tools/compiler/gcc-arm-none-eabi-6-2017-q1-update/bin/../lib/gcc/arm-none-eabi/6.3.1/thumb/v7e-m/fpv4-sp/hard/libgcc.a(_arm_truncdfsf2.o)
                              ./LCD.o (__aeabi_d2f)
/home/kaviya/ti/ccsv7/tools/compiler/gcc-arm-none-eabi-6-2017-q1-update/bin/../lib/gcc/arm-none-eabi/6.3.1/thumb/v7e-m/fpv4-sp/hard/libgcc.a(_aeabi_uldivmod.o)
                              /home/kaviya/ti/ccsv7/tools/compiler/gcc-arm-none-eabi-6-2017-q1-update/bin/../lib/gcc/arm-none-eabi/6.3.1/../../../../arm-none-eabi/lib/thumb/v7e-m/fpv4-sp/hard/libc.a(lib_a-vfprintf.o) (__aeabi_uldivmod)
/home/kaviya/ti/ccsv7/tools/compiler/gcc-arm-none-eabi-6-2017-q1-update/bin/../lib/gcc/arm-none-eabi/6.3.1/thumb/v7e-m/fpv4-sp/hard/libgcc.a(_udivmoddi4.o)
                              /home/kaviya/ti/ccsv7/tools/compiler/gcc-arm-none-eabi-6-2017-q1-update/bin/../lib/gcc/arm-none-eabi/6.3.1/thumb/v7e-m/fpv4-sp/hard/libgcc.a(_aeabi_uldivmod.o) (__udivmoddi4)
/home/kaviya/ti/ccsv7/tools/compiler/gcc-arm-none-eabi-6-2017-q1-update/bin/../lib/gcc/arm-none-eabi/6.3.1/thumb/v7e-m/fpv4-sp/hard/libgcc.a(_dvmd_tls.o)
                              /home/kaviya/ti/ccsv7/tools/compiler/gcc-arm-none-eabi-6-2017-q1-update/bin/../lib/gcc/arm-none-eabi/6.3.1/thumb/v7e-m/fpv4-sp/hard/libgcc.a(_aeabi_uldivmod.o) (__aeabi_ldiv0)

Allocating common symbols
Common symbol       size              file

Rect_t2             0x8               ./LCD.o
__lock___atexit_recursive_mutex
                    0x1               /home/kaviya/ti/ccsv7/tools/compiler/gcc-arm-none-eabi-6-2017-q1-update/bin/../lib/gcc/arm-none-eabi/6.3.1/../../../../arm-none-eabi/lib/thumb/v7e-m/fpv4-sp/hard/libc.a(lib_a-lock.o)
Rect_t1             0x8               ./LCD.o
__lock___arc4random_mutex
                    0x1               /home/kaviya/ti/ccsv7/tools/compiler/gcc-arm-none-eabi-6-2017-q1-update/bin/../lib/gcc/arm-none-eabi/6.3.1/../../../../arm-none-eabi/lib/thumb/v7e-m/fpv4-sp/hard/libc.a(lib_a-lock.o)
errno               0x4               /home/kaviya/ti/ccsv7/tools/compiler/gcc-arm-none-eabi-6-2017-q1-update/bin/../lib/gcc/arm-none-eabi/6.3.1/../../../../arm-none-eabi/lib/thumb/v7e-m/fpv4-sp/hard/libc.a(lib_a-reent.o)
sRect               0x8               ./LCD.o
string              0x64              ./UART.o
__lock___env_recursive_mutex
                    0x1               /home/kaviya/ti/ccsv7/tools/compiler/gcc-arm-none-eabi-6-2017-q1-update/bin/../lib/gcc/arm-none-eabi/6.3.1/../../../../arm-none-eabi/lib/thumb/v7e-m/fpv4-sp/hard/libc.a(lib_a-lock.o)
__lock___sinit_recursive_mutex
                    0x1               /home/kaviya/ti/ccsv7/tools/compiler/gcc-arm-none-eabi-6-2017-q1-update/bin/../lib/gcc/arm-none-eabi/6.3.1/../../../../arm-none-eabi/lib/thumb/v7e-m/fpv4-sp/hard/libc.a(lib_a-lock.o)
Rect_R              0x8               ./LCD.o
sContext            0x2c              ./LCD.o
__lock___malloc_recursive_mutex
                    0x1               /home/kaviya/ti/ccsv7/tools/compiler/gcc-arm-none-eabi-6-2017-q1-update/bin/../lib/gcc/arm-none-eabi/6.3.1/../../../../arm-none-eabi/lib/thumb/v7e-m/fpv4-sp/hard/libc.a(lib_a-lock.o)
str_left            0xa               ./LCD.o
str_time            0xa               ./LCD.o
Rect_M              0x8               ./LCD.o
__lock___at_quick_exit_mutex
                    0x1               /home/kaviya/ti/ccsv7/tools/compiler/gcc-arm-none-eabi-6-2017-q1-update/bin/../lib/gcc/arm-none-eabi/6.3.1/../../../../arm-none-eabi/lib/thumb/v7e-m/fpv4-sp/hard/libc.a(lib_a-lock.o)
str_right           0xa               ./LCD.o
__lock___dd_hash_mutex
                    0x1               /home/kaviya/ti/ccsv7/tools/compiler/gcc-arm-none-eabi-6-2017-q1-update/bin/../lib/gcc/arm-none-eabi/6.3.1/../../../../arm-none-eabi/lib/thumb/v7e-m/fpv4-sp/hard/libc.a(lib_a-lock.o)
__lock___tz_mutex   0x1               /home/kaviya/ti/ccsv7/tools/compiler/gcc-arm-none-eabi-6-2017-q1-update/bin/../lib/gcc/arm-none-eabi/6.3.1/../../../../arm-none-eabi/lib/thumb/v7e-m/fpv4-sp/hard/libc.a(lib_a-lock.o)
Rect_L              0x8               ./LCD.o
ui32SysClock        0x4               ./LCD.o
__lock___sfp_recursive_mutex
                    0x1               /home/kaviya/ti/ccsv7/tools/compiler/gcc-arm-none-eabi-6-2017-q1-update/bin/../lib/gcc/arm-none-eabi/6.3.1/../../../../arm-none-eabi/lib/thumb/v7e-m/fpv4-sp/hard/libc.a(lib_a-lock.o)

Memory Configuration

Name             Origin             Length             Attributes
FLASH            0x0000000000000000 0x0000000000040000 xr
SRAM             0x0000000020000000 0x0000000000008000 xw
*default*        0x0000000000000000 0xffffffffffffffff

Linker script and memory map

LOAD /home/kaviya/ti/ccsv7/tools/compiler/gcc-arm-none-eabi-6-2017-q1-update/bin/../lib/gcc/arm-none-eabi/6.3.1/thumb/v7e-m/fpv4-sp/hard/crti.o
LOAD /home/kaviya/ti/ccsv7/tools/compiler/gcc-arm-none-eabi-6-2017-q1-update/bin/../lib/gcc/arm-none-eabi/6.3.1/thumb/v7e-m/fpv4-sp/hard/crtbegin.o
LOAD /home/kaviya/ti/ccsv7/tools/compiler/gcc-arm-none-eabi-6-2017-q1-update/bin/../lib/gcc/arm-none-eabi/6.3.1/../../../../arm-none-eabi/lib/thumb/v7e-m/fpv4-sp/hard/crt0.o
LOAD ./Kentec320x240x16_ssd2119_spi.o
LOAD ./LCD.o
LOAD ./LCD_stairs.o
LOAD ./UART.o
LOAD ./tm4c123gh6pm_startup_ccs_gcc.o
LOAD ./ustdlib.o
                0x0000000000000000                PROVIDE (_intvecs_base_address, 0x0)

.intvecs        0x0000000000000000      0x26c
 *(.intvecs)
 .intvecs       0x0000000000000000      0x26c ./tm4c123gh6pm_startup_ccs_gcc.o
                0x0000000000000000                g_pfnVectors
                0x0000000020000000                PROVIDE (_vtable_base_address, 0x20000000)

.vtable
 *(.vtable)

.text           0x0000000000000280     0xd510
 CREATE_OBJECT_SYMBOLS
 *(.text)
 .text          0x0000000000000280        0x0 /home/kaviya/ti/ccsv7/tools/compiler/gcc-arm-none-eabi-6-2017-q1-update/bin/../lib/gcc/arm-none-eabi/6.3.1/thumb/v7e-m/fpv4-sp/hard/crti.o
 .text          0x0000000000000280       0x6c /home/kaviya/ti/ccsv7/tools/compiler/gcc-arm-none-eabi-6-2017-q1-update/bin/../lib/gcc/arm-none-eabi/6.3.1/thumb/v7e-m/fpv4-sp/hard/crtbegin.o
 .text          0x00000000000002ec       0x74 /home/kaviya/ti/ccsv7/tools/compiler/gcc-arm-none-eabi-6-2017-q1-update/bin/../lib/gcc/arm-none-eabi/6.3.1/../../../../arm-none-eabi/lib/thumb/v7e-m/fpv4-sp/hard/crt0.o
                0x00000000000002ec                _mainCRTStartup
                0x00000000000002ec                _start
 .text          0x0000000000000360        0x0 ./Kentec320x240x16_ssd2119_spi.o
 .text          0x0000000000000360        0x0 ./LCD.o
 .text          0x0000000000000360        0x0 ./LCD_stairs.o
 .text          0x0000000000000360        0x0 ./UART.o
 .text          0x0000000000000360        0x0 ./tm4c123gh6pm_startup_ccs_gcc.o
 .text          0x0000000000000360        0x0 ./ustdlib.o
 .text          0x0000000000000360        0x0 /home/kaviya/ti/ccsv7/tools/compiler/gcc-arm-none-eabi-6-2017-q1-update/bin/../lib/gcc/arm-none-eabi/6.3.1/../../../../arm-none-eabi/lib/thumb/v7e-m/fpv4-sp/hard/libc.a(lib_a-exit.o)
 .text          0x0000000000000360        0x0 /home/kaviya/ti/ccsv7/tools/compiler/gcc-arm-none-eabi-6-2017-q1-update/bin/../lib/gcc/arm-none-eabi/6.3.1/../../../../arm-none-eabi/lib/thumb/v7e-m/fpv4-sp/hard/libc.a(lib_a-impure.o)
 .text          0x0000000000000360        0x0 /home/kaviya/ti/ccsv7/tools/compiler/gcc-arm-none-eabi-6-2017-q1-update/bin/../lib/gcc/arm-none-eabi/6.3.1/../../../../arm-none-eabi/lib/thumb/v7e-m/fpv4-sp/hard/libc.a(lib_a-init.o)
 .text          0x0000000000000360        0x0 /home/kaviya/ti/ccsv7/tools/compiler/gcc-arm-none-eabi-6-2017-q1-update/bin/../lib/gcc/arm-none-eabi/6.3.1/../../../../arm-none-eabi/lib/thumb/v7e-m/fpv4-sp/hard/libc.a(lib_a-itoa.o)
 .text          0x0000000000000360      0x134 /home/kaviya/ti/ccsv7/tools/compiler/gcc-arm-none-eabi-6-2017-q1-update/bin/../lib/gcc/arm-none-eabi/6.3.1/../../../../arm-none-eabi/lib/thumb/v7e-m/fpv4-sp/hard/libc.a(lib_a-memcpy.o)
                0x0000000000000360                memcpy
 .text          0x0000000000000494        0x0 /home/kaviya/ti/ccsv7/tools/compiler/gcc-arm-none-eabi-6-2017-q1-update/bin/../lib/gcc/arm-none-eabi/6.3.1/../../../../arm-none-eabi/lib/thumb/v7e-m/fpv4-sp/hard/libc.a(lib_a-memset.o)
 .text          0x0000000000000494        0x0 /home/kaviya/ti/ccsv7/tools/compiler/gcc-arm-none-eabi-6-2017-q1-update/bin/../lib/gcc/arm-none-eabi/6.3.1/../../../../arm-none-eabi/lib/thumb/v7e-m/fpv4-sp/hard/libc.a(lib_a-printf.o)
 *fill*         0x0000000000000494       0x2c 
 .text          0x00000000000004c0       0xdc /home/kaviya/ti/ccsv7/tools/compiler/gcc-arm-none-eabi-6-2017-q1-update/bin/../lib/gcc/arm-none-eabi/6.3.1/../../../../arm-none-eabi/lib/thumb/v7e-m/fpv4-sp/hard/libc.a(lib_a-strlen.o)
                0x00000000000004c0                strlen
 .text          0x000000000000059c        0x0 /home/kaviya/ti/ccsv7/tools/compiler/gcc-arm-none-eabi-6-2017-q1-update/bin/../lib/gcc/arm-none-eabi/6.3.1/../../../../arm-none-eabi/lib/thumb/v7e-m/fpv4-sp/hard/libc.a(lib_a-utoa.o)
 .text          0x000000000000059c        0x0 /home/kaviya/ti/ccsv7/tools/compiler/gcc-arm-none-eabi-6-2017-q1-update/bin/../lib/gcc/arm-none-eabi/6.3.1/../../../../arm-none-eabi/lib/thumb/v7e-m/fpv4-sp/hard/libc.a(lib_a-vfprintf.o)
 .text          0x000000000000059c        0x0 /home/kaviya/ti/ccsv7/tools/compiler/gcc-arm-none-eabi-6-2017-q1-update/bin/../lib/gcc/arm-none-eabi/6.3.1/../../../../arm-none-eabi/lib/thumb/v7e-m/fpv4-sp/hard/libc.a(lib_a-wsetup.o)
 .text          0x000000000000059c        0x0 /home/kaviya/ti/ccsv7/tools/compiler/gcc-arm-none-eabi-6-2017-q1-update/bin/../lib/gcc/arm-none-eabi/6.3.1/../../../../arm-none-eabi/lib/thumb/v7e-m/fpv4-sp/hard/libc.a(lib_a-__call_atexit.o)
 .text          0x000000000000059c        0x0 /home/kaviya/ti/ccsv7/tools/compiler/gcc-arm-none-eabi-6-2017-q1-update/bin/../lib/gcc/arm-none-eabi/6.3.1/../../../../arm-none-eabi/lib/thumb/v7e-m/fpv4-sp/hard/libc.a(lib_a-atexit.o)
 .text          0x000000000000059c        0x0 /home/kaviya/ti/ccsv7/tools/compiler/gcc-arm-none-eabi-6-2017-q1-update/bin/../lib/gcc/arm-none-eabi/6.3.1/../../../../arm-none-eabi/lib/thumb/v7e-m/fpv4-sp/hard/libc.a(lib_a-dtoa.o)
 .text          0x000000000000059c        0x0 /home/kaviya/ti/ccsv7/tools/compiler/gcc-arm-none-eabi-6-2017-q1-update/bin/../lib/gcc/arm-none-eabi/6.3.1/../../../../arm-none-eabi/lib/thumb/v7e-m/fpv4-sp/hard/libc.a(lib_a-fflush.o)
 .text          0x000000000000059c        0x0 /home/kaviya/ti/ccsv7/tools/compiler/gcc-arm-none-eabi-6-2017-q1-update/bin/../lib/gcc/arm-none-eabi/6.3.1/../../../../arm-none-eabi/lib/thumb/v7e-m/fpv4-sp/hard/libc.a(lib_a-findfp.o)
 .text          0x000000000000059c        0x0 /home/kaviya/ti/ccsv7/tools/compiler/gcc-arm-none-eabi-6-2017-q1-update/bin/../lib/gcc/arm-none-eabi/6.3.1/../../../../arm-none-eabi/lib/thumb/v7e-m/fpv4-sp/hard/libc.a(lib_a-fini.o)
 .text          0x000000000000059c        0x0 /home/kaviya/ti/ccsv7/tools/compiler/gcc-arm-none-eabi-6-2017-q1-update/bin/../lib/gcc/arm-none-eabi/6.3.1/../../../../arm-none-eabi/lib/thumb/v7e-m/fpv4-sp/hard/libc.a(lib_a-freer.o)
 .text          0x000000000000059c        0x0 /home/kaviya/ti/ccsv7/tools/compiler/gcc-arm-none-eabi-6-2017-q1-update/bin/../lib/gcc/arm-none-eabi/6.3.1/../../../../arm-none-eabi/lib/thumb/v7e-m/fpv4-sp/hard/libc.a(lib_a-fwalk.o)
 .text          0x000000000000059c        0x0 /home/kaviya/ti/ccsv7/tools/compiler/gcc-arm-none-eabi-6-2017-q1-update/bin/../lib/gcc/arm-none-eabi/6.3.1/../../../../arm-none-eabi/lib/thumb/v7e-m/fpv4-sp/hard/libc.a(lib_a-localeconv.o)
 .text          0x000000000000059c        0x0 /home/kaviya/ti/ccsv7/tools/compiler/gcc-arm-none-eabi-6-2017-q1-update/bin/../lib/gcc/arm-none-eabi/6.3.1/../../../../arm-none-eabi/lib/thumb/v7e-m/fpv4-sp/hard/libc.a(lib_a-lock.o)
 .text          0x000000000000059c        0x0 /home/kaviya/ti/ccsv7/tools/compiler/gcc-arm-none-eabi-6-2017-q1-update/bin/../lib/gcc/arm-none-eabi/6.3.1/../../../../arm-none-eabi/lib/thumb/v7e-m/fpv4-sp/hard/libc.a(lib_a-makebuf.o)
 .text          0x000000000000059c        0x0 /home/kaviya/ti/ccsv7/tools/compiler/gcc-arm-none-eabi-6-2017-q1-update/bin/../lib/gcc/arm-none-eabi/6.3.1/../../../../arm-none-eabi/lib/thumb/v7e-m/fpv4-sp/hard/libc.a(lib_a-mallocr.o)
 *fill*         0x000000000000059c        0x4 
 .text          0x00000000000005a0       0xa0 /home/kaviya/ti/ccsv7/tools/compiler/gcc-arm-none-eabi-6-2017-q1-update/bin/../lib/gcc/arm-none-eabi/6.3.1/../../../../arm-none-eabi/lib/thumb/v7e-m/fpv4-sp/hard/libc.a(lib_a-memchr.o)
                0x00000000000005a0                memchr
 .text          0x0000000000000640        0x0 /home/kaviya/ti/ccsv7/tools/compiler/gcc-arm-none-eabi-6-2017-q1-update/bin/../lib/gcc/arm-none-eabi/6.3.1/../../../../arm-none-eabi/lib/thumb/v7e-m/fpv4-sp/hard/libc.a(lib_a-mlock.o)
 .text          0x0000000000000640        0x0 /home/kaviya/ti/ccsv7/tools/compiler/gcc-arm-none-eabi-6-2017-q1-update/bin/../lib/gcc/arm-none-eabi/6.3.1/../../../../arm-none-eabi/lib/thumb/v7e-m/fpv4-sp/hard/libc.a(lib_a-mprec.o)
 .text          0x0000000000000640        0x0 /home/kaviya/ti/ccsv7/tools/compiler/gcc-arm-none-eabi-6-2017-q1-update/bin/../lib/gcc/arm-none-eabi/6.3.1/../../../../arm-none-eabi/lib/thumb/v7e-m/fpv4-sp/hard/libc.a(lib_a-sbrkr.o)
 .text          0x0000000000000640        0x0 /home/kaviya/ti/ccsv7/tools/compiler/gcc-arm-none-eabi-6-2017-q1-update/bin/../lib/gcc/arm-none-eabi/6.3.1/../../../../arm-none-eabi/lib/thumb/v7e-m/fpv4-sp/hard/libc.a(lib_a-stdio.o)
 .text          0x0000000000000640        0x0 /home/kaviya/ti/ccsv7/tools/compiler/gcc-arm-none-eabi-6-2017-q1-update/bin/../lib/gcc/arm-none-eabi/6.3.1/../../../../arm-none-eabi/lib/thumb/v7e-m/fpv4-sp/hard/libc.a(lib_a-vfiprintf.o)
 .text          0x0000000000000640        0x0 /home/kaviya/ti/ccsv7/tools/compiler/gcc-arm-none-eabi-6-2017-q1-update/bin/../lib/gcc/arm-none-eabi/6.3.1/../../../../arm-none-eabi/lib/thumb/v7e-m/fpv4-sp/hard/libc.a(lib_a-writer.o)
 .text          0x0000000000000640        0x0 /home/kaviya/ti/ccsv7/tools/compiler/gcc-arm-none-eabi-6-2017-q1-update/bin/../lib/gcc/arm-none-eabi/6.3.1/../../../../arm-none-eabi/lib/thumb/v7e-m/fpv4-sp/hard/libc.a(lib_a-__atexit.o)
 .text          0x0000000000000640        0x0 /home/kaviya/ti/ccsv7/tools/compiler/gcc-arm-none-eabi-6-2017-q1-update/bin/../lib/gcc/arm-none-eabi/6.3.1/../../../../arm-none-eabi/lib/thumb/v7e-m/fpv4-sp/hard/libc.a(lib_a-callocr.o)
 .text          0x0000000000000640        0x0 /home/kaviya/ti/ccsv7/tools/compiler/gcc-arm-none-eabi-6-2017-q1-update/bin/../lib/gcc/arm-none-eabi/6.3.1/../../../../arm-none-eabi/lib/thumb/v7e-m/fpv4-sp/hard/libc.a(lib_a-closer.o)
 .text          0x0000000000000640        0x0 /home/kaviya/ti/ccsv7/tools/compiler/gcc-arm-none-eabi-6-2017-q1-update/bin/../lib/gcc/arm-none-eabi/6.3.1/../../../../arm-none-eabi/lib/thumb/v7e-m/fpv4-sp/hard/libc.a(lib_a-fclose.o)
 .text          0x0000000000000640        0x0 /home/kaviya/ti/ccsv7/tools/compiler/gcc-arm-none-eabi-6-2017-q1-update/bin/../lib/gcc/arm-none-eabi/6.3.1/../../../../arm-none-eabi/lib/thumb/v7e-m/fpv4-sp/hard/libc.a(lib_a-fputwc.o)
 .text          0x0000000000000640        0x0 /home/kaviya/ti/ccsv7/tools/compiler/gcc-arm-none-eabi-6-2017-q1-update/bin/../lib/gcc/arm-none-eabi/6.3.1/../../../../arm-none-eabi/lib/thumb/v7e-m/fpv4-sp/hard/libc.a(lib_a-fstatr.o)
 .text          0x0000000000000640        0x0 /home/kaviya/ti/ccsv7/tools/compiler/gcc-arm-none-eabi-6-2017-q1-update/bin/../lib/gcc/arm-none-eabi/6.3.1/../../../../arm-none-eabi/lib/thumb/v7e-m/fpv4-sp/hard/libc.a(lib_a-fvwrite.o)
 .text          0x0000000000000640        0x0 /home/kaviya/ti/ccsv7/tools/compiler/gcc-arm-none-eabi-6-2017-q1-update/bin/../lib/gcc/arm-none-eabi/6.3.1/../../../../arm-none-eabi/lib/thumb/v7e-m/fpv4-sp/hard/libc.a(lib_a-isattyr.o)
 .text          0x0000000000000640        0x0 /home/kaviya/ti/ccsv7/tools/compiler/gcc-arm-none-eabi-6-2017-q1-update/bin/../lib/gcc/arm-none-eabi/6.3.1/../../../../arm-none-eabi/lib/thumb/v7e-m/fpv4-sp/hard/libc.a(lib_a-locale.o)
 .text          0x0000000000000640        0x0 /home/kaviya/ti/ccsv7/tools/compiler/gcc-arm-none-eabi-6-2017-q1-update/bin/../lib/gcc/arm-none-eabi/6.3.1/../../../../arm-none-eabi/lib/thumb/v7e-m/fpv4-sp/hard/libc.a(lib_a-lseekr.o)
 .text          0x0000000000000640        0x0 /home/kaviya/ti/ccsv7/tools/compiler/gcc-arm-none-eabi-6-2017-q1-update/bin/../lib/gcc/arm-none-eabi/6.3.1/../../../../arm-none-eabi/lib/thumb/v7e-m/fpv4-sp/hard/libc.a(lib_a-mbtowc_r.o)
 .text          0x0000000000000640        0x0 /home/kaviya/ti/ccsv7/tools/compiler/gcc-arm-none-eabi-6-2017-q1-update/bin/../lib/gcc/arm-none-eabi/6.3.1/../../../../arm-none-eabi/lib/thumb/v7e-m/fpv4-sp/hard/libc.a(lib_a-memmove.o)
 .text          0x0000000000000640        0x0 /home/kaviya/ti/ccsv7/tools/compiler/gcc-arm-none-eabi-6-2017-q1-update/bin/../lib/gcc/arm-none-eabi/6.3.1/../../../../arm-none-eabi/lib/thumb/v7e-m/fpv4-sp/hard/libc.a(lib_a-readr.o)
 .text          0x0000000000000640        0x0 /home/kaviya/ti/ccsv7/tools/compiler/gcc-arm-none-eabi-6-2017-q1-update/bin/../lib/gcc/arm-none-eabi/6.3.1/../../../../arm-none-eabi/lib/thumb/v7e-m/fpv4-sp/hard/libc.a(lib_a-reallocr.o)
 .text          0x0000000000000640        0x0 /home/kaviya/ti/ccsv7/tools/compiler/gcc-arm-none-eabi-6-2017-q1-update/bin/../lib/gcc/arm-none-eabi/6.3.1/../../../../arm-none-eabi/lib/thumb/v7e-m/fpv4-sp/hard/libc.a(lib_a-reent.o)
 .text          0x0000000000000640      0x2dc /home/kaviya/ti/ccsv7/tools/compiler/gcc-arm-none-eabi-6-2017-q1-update/bin/../lib/gcc/arm-none-eabi/6.3.1/../../../../arm-none-eabi/lib/thumb/v7e-m/fpv4-sp/hard/libc.a(lib_a-strcmp.o)
                0x0000000000000648                strcmp
 .text          0x000000000000091c        0x0 /home/kaviya/ti/ccsv7/tools/compiler/gcc-arm-none-eabi-6-2017-q1-update/bin/../lib/gcc/arm-none-eabi/6.3.1/../../../../arm-none-eabi/lib/thumb/v7e-m/fpv4-sp/hard/libc.a(lib_a-wbuf.o)
 .text          0x000000000000091c        0x0 /home/kaviya/ti/ccsv7/tools/compiler/gcc-arm-none-eabi-6-2017-q1-update/bin/../lib/gcc/arm-none-eabi/6.3.1/../../../../arm-none-eabi/lib/thumb/v7e-m/fpv4-sp/hard/libc.a(lib_a-wcrtomb.o)
 .text          0x000000000000091c        0x0 /home/kaviya/ti/ccsv7/tools/compiler/gcc-arm-none-eabi-6-2017-q1-update/bin/../lib/gcc/arm-none-eabi/6.3.1/../../../../arm-none-eabi/lib/thumb/v7e-m/fpv4-sp/hard/libc.a(lib_a-wctomb_r.o)
 .text          0x000000000000091c        0x0 /home/kaviya/ti/ccsv7/tools/compiler/gcc-arm-none-eabi-6-2017-q1-update/bin/../lib/gcc/arm-none-eabi/6.3.1/../../../../arm-none-eabi/lib/thumb/v7e-m/fpv4-sp/hard/libc.a(lib_a-ctype_.o)
 .text          0x000000000000091c        0x0 /home/kaviya/ti/ccsv7/tools/compiler/gcc-arm-none-eabi-6-2017-q1-update/bin/../lib/gcc/arm-none-eabi/6.3.1/../../../../arm-none-eabi/lib/thumb/v7e-m/fpv4-sp/hard/librdimon.a(rdimon-syscalls.o)
 .text          0x000000000000091c        0x0 /home/kaviya/ti/ccsv7/tools/compiler/gcc-arm-none-eabi-6-2017-q1-update/bin/../lib/gcc/arm-none-eabi/6.3.1/../../../../arm-none-eabi/lib/thumb/v7e-m/fpv4-sp/hard/librdimon.a(rdimon-_exit.o)
 .text          0x000000000000091c        0x0 /home/kaviya/ti/ccsv7/tools/compiler/gcc-arm-none-eabi-6-2017-q1-update/bin/../lib/gcc/arm-none-eabi/6.3.1/../../../../arm-none-eabi/lib/thumb/v7e-m/fpv4-sp/hard/librdimon.a(rdimon-_kill.o)
 .text          0x000000000000091c        0x0 /home/kaviya/ti/ccsv7/tools/compiler/gcc-arm-none-eabi-6-2017-q1-update/bin/../lib/gcc/arm-none-eabi/6.3.1/../../../../arm-none-eabi/lib/thumb/v7e-m/fpv4-sp/hard/libc.a(lib_a-errno.o)
 .text          0x000000000000091c        0x0 /home/kaviya/ti/TivaWare_C_Series-2.1.4.178/driverlib/gcc/libdriver.a(fpu.o)
 .text          0x000000000000091c        0x0 /home/kaviya/ti/TivaWare_C_Series-2.1.4.178/driverlib/gcc/libdriver.a(gpio.o)
 .text          0x000000000000091c        0x0 /home/kaviya/ti/TivaWare_C_Series-2.1.4.178/driverlib/gcc/libdriver.a(interrupt.o)
 .text          0x000000000000091c        0x0 /home/kaviya/ti/TivaWare_C_Series-2.1.4.178/driverlib/gcc/libdriver.a(ssi.o)
 .text          0x000000000000091c        0x0 /home/kaviya/ti/TivaWare_C_Series-2.1.4.178/driverlib/gcc/libdriver.a(sysctl.o)
 .text          0x000000000000091c        0x0 /home/kaviya/ti/TivaWare_C_Series-2.1.4.178/driverlib/gcc/libdriver.a(uart.o)
 .text          0x000000000000091c        0x0 /home/kaviya/ti/TivaWare_C_Series-2.1.4.178/driverlib/gcc/libdriver.a(cpu.o)
 .text          0x000000000000091c        0x0 /home/kaviya/ti/TivaWare_C_Series-2.1.4.178/grlib/gcc/libgr.a(context.o)
 .text          0x000000000000091c        0x0 /home/kaviya/ti/TivaWare_C_Series-2.1.4.178/grlib/gcc/libgr.a(fontcm12.o)
 .text          0x000000000000091c        0x0 /home/kaviya/ti/TivaWare_C_Series-2.1.4.178/grlib/gcc/libgr.a(line.o)
 .text          0x000000000000091c        0x0 /home/kaviya/ti/TivaWare_C_Series-2.1.4.178/grlib/gcc/libgr.a(rectangle.o)
 .text          0x000000000000091c        0x0 /home/kaviya/ti/TivaWare_C_Series-2.1.4.178/grlib/gcc/libgr.a(string.o)
 .text          0x000000000000091c        0x0 /home/kaviya/ti/TivaWare_C_Series-2.1.4.178/grlib/gcc/libgr.a(charmap.o)
 .text          0x000000000000091c      0x370 /home/kaviya/ti/ccsv7/tools/compiler/gcc-arm-none-eabi-6-2017-q1-update/bin/../lib/gcc/arm-none-eabi/6.3.1/thumb/v7e-m/fpv4-sp/hard/libgcc.a(_arm_addsubdf3.o)
                0x000000000000091c                __aeabi_drsub
                0x0000000000000924                __aeabi_dsub
                0x0000000000000924                __subdf3
                0x0000000000000928                __adddf3
                0x0000000000000928                __aeabi_dadd
                0x0000000000000ba0                __aeabi_ui2d
                0x0000000000000ba0                __floatunsidf
                0x0000000000000bc0                __floatsidf
                0x0000000000000bc0                __aeabi_i2d
                0x0000000000000be4                __extendsfdf2
                0x0000000000000be4                __aeabi_f2d
                0x0000000000000c20                __aeabi_ul2d
                0x0000000000000c20                __floatundidf
                0x0000000000000c30                __floatdidf
                0x0000000000000c30                __aeabi_l2d
 .text          0x0000000000000c8c      0x424 /home/kaviya/ti/ccsv7/tools/compiler/gcc-arm-none-eabi-6-2017-q1-update/bin/../lib/gcc/arm-none-eabi/6.3.1/thumb/v7e-m/fpv4-sp/hard/libgcc.a(_arm_muldivdf3.o)
                0x0000000000000c8c                __aeabi_dmul
                0x0000000000000c8c                __muldf3
                0x0000000000000ee0                __aeabi_ddiv
                0x0000000000000ee0                __divdf3
 .text          0x00000000000010b0      0x110 /home/kaviya/ti/ccsv7/tools/compiler/gcc-arm-none-eabi-6-2017-q1-update/bin/../lib/gcc/arm-none-eabi/6.3.1/thumb/v7e-m/fpv4-sp/hard/libgcc.a(_arm_cmpdf2.o)
                0x00000000000010b0                __gtdf2
                0x00000000000010b0                __gedf2
                0x00000000000010b8                __ltdf2
                0x00000000000010b8                __ledf2
                0x00000000000010c0                __cmpdf2
                0x00000000000010c0                __eqdf2
                0x00000000000010c0                __nedf2
                0x000000000000113c                __aeabi_cdrcmple
                0x000000000000114c                __aeabi_cdcmple
                0x000000000000114c                __aeabi_cdcmpeq
                0x000000000000115c                __aeabi_dcmpeq
                0x0000000000001170                __aeabi_dcmplt
                0x0000000000001184                __aeabi_dcmple
                0x0000000000001198                __aeabi_dcmpge
                0x00000000000011ac                __aeabi_dcmpgt
 .text          0x00000000000011c0       0x2c /home/kaviya/ti/ccsv7/tools/compiler/gcc-arm-none-eabi-6-2017-q1-update/bin/../lib/gcc/arm-none-eabi/6.3.1/thumb/v7e-m/fpv4-sp/hard/libgcc.a(_arm_unorddf2.o)
                0x00000000000011c0                __aeabi_dcmpun
                0x00000000000011c0                __unorddf2
 .text          0x00000000000011ec       0x50 /home/kaviya/ti/ccsv7/tools/compiler/gcc-arm-none-eabi-6-2017-q1-update/bin/../lib/gcc/arm-none-eabi/6.3.1/thumb/v7e-m/fpv4-sp/hard/libgcc.a(_arm_fixdfsi.o)
                0x00000000000011ec                __fixdfsi
                0x00000000000011ec                __aeabi_d2iz
 .text          0x000000000000123c       0xa0 /home/kaviya/ti/ccsv7/tools/compiler/gcc-arm-none-eabi-6-2017-q1-update/bin/../lib/gcc/arm-none-eabi/6.3.1/thumb/v7e-m/fpv4-sp/hard/libgcc.a(_arm_truncdfsf2.o)
                0x000000000000123c                __aeabi_d2f
                0x000000000000123c                __truncdfsf2
 .text          0x00000000000012dc       0x30 /home/kaviya/ti/ccsv7/tools/compiler/gcc-arm-none-eabi-6-2017-q1-update/bin/../lib/gcc/arm-none-eabi/6.3.1/thumb/v7e-m/fpv4-sp/hard/libgcc.a(_aeabi_uldivmod.o)
                0x00000000000012dc                __aeabi_uldivmod
 .text          0x000000000000130c      0x2dc /home/kaviya/ti/ccsv7/tools/compiler/gcc-arm-none-eabi-6-2017-q1-update/bin/../lib/gcc/arm-none-eabi/6.3.1/thumb/v7e-m/fpv4-sp/hard/libgcc.a(_udivmoddi4.o)
                0x000000000000130c                __udivmoddi4
 .text          0x00000000000015e8        0x4 /home/kaviya/ti/ccsv7/tools/compiler/gcc-arm-none-eabi-6-2017-q1-update/bin/../lib/gcc/arm-none-eabi/6.3.1/thumb/v7e-m/fpv4-sp/hard/libgcc.a(_dvmd_tls.o)
                0x00000000000015e8                __aeabi_ldiv0
                0x00000000000015e8                __aeabi_idiv0
 .text          0x00000000000015ec        0x0 /home/kaviya/ti/ccsv7/tools/compiler/gcc-arm-none-eabi-6-2017-q1-update/bin/../lib/gcc/arm-none-eabi/6.3.1/thumb/v7e-m/fpv4-sp/hard/crtend.o
 .text          0x00000000000015ec        0x0 /home/kaviya/ti/ccsv7/tools/compiler/gcc-arm-none-eabi-6-2017-q1-update/bin/../lib/gcc/arm-none-eabi/6.3.1/thumb/v7e-m/fpv4-sp/hard/crtn.o
 *(.text.*)
 .text.LED_ON   0x00000000000015ec       0x18 ./Kentec320x240x16_ssd2119_spi.o
 .text.LED_OFF  0x0000000000001604       0x18 ./Kentec320x240x16_ssd2119_spi.o
 .text.WriteDataSPI
                0x000000000000161c       0x68 ./Kentec320x240x16_ssd2119_spi.o
 .text.WriteCommandSPI
                0x0000000000001684       0x64 ./Kentec320x240x16_ssd2119_spi.o
 .text.InitSPILCDInterface
                0x00000000000016e8      0x100 ./Kentec320x240x16_ssd2119_spi.o
 .text.Kentec320x240x16_SSD2119Init
                0x00000000000017e8      0x1f8 ./Kentec320x240x16_ssd2119_spi.o
                0x00000000000017e8                Kentec320x240x16_SSD2119Init
 .text.Kentec320x240x16_SSD2119PixelDraw
                0x00000000000019e0       0x54 ./Kentec320x240x16_ssd2119_spi.o
 .text.Kentec320x240x16_SSD2119PixelDrawMultiple
                0x0000000000001a34      0x258 ./Kentec320x240x16_ssd2119_spi.o
 .text.Kentec320x240x16_SSD2119LineDrawH
                0x0000000000001c8c       0x70 ./Kentec320x240x16_ssd2119_spi.o
 .text.Kentec320x240x16_SSD2119LineDrawV
                0x0000000000001cfc       0x70 ./Kentec320x240x16_ssd2119_spi.o
 .text.Kentec320x240x16_SSD2119RectFill
                0x0000000000001d6c      0x130 ./Kentec320x240x16_ssd2119_spi.o
 .text.Kentec320x240x16_SSD2119ColorTranslate
                0x0000000000001e9c       0x32 ./Kentec320x240x16_ssd2119_spi.o
 .text.Kentec320x240x16_SSD2119Flush
                0x0000000000001ece       0x14 ./Kentec320x240x16_ssd2119_spi.o
 *fill*         0x0000000000001ee2        0x2 
 .text.print_time
                0x0000000000001ee4      0x2c8 ./LCD.o
                0x0000000000001ee4                print_time
 .text.clear_screen
                0x00000000000021ac       0xd0 ./LCD.o
                0x00000000000021ac                clear_screen
 .text.print_waveform
                0x000000000000227c      0x7f8 ./LCD.o
                0x000000000000227c                print_waveform
 .text.data_convert
                0x0000000000002a74      0x178 ./LCD.o
                0x0000000000002a74                data_convert
 .text.prev_init
                0x0000000000002bec       0x50 ./LCD.o
                0x0000000000002bec                prev_init
 .text.main     0x0000000000002c3c       0xa4 ./LCD_stairs.o
                0x0000000000002c3c                main
 .text.print_waveform_ch1
                0x0000000000002ce0      0x248 ./LCD_stairs.o
                0x0000000000002ce0                print_waveform_ch1
 .text.print_waveform_ch2
                0x0000000000002f28      0x248 ./LCD_stairs.o
                0x0000000000002f28                print_waveform_ch2
 .text.UARTIntHandler
                0x0000000000003170       0xa0 ./UART.o
                0x0000000000003170                UARTIntHandler
 .text.UART_init
                0x0000000000003210       0x64 ./UART.o
                0x0000000000003210                UART_init
 .text.UART_get_string
                0x0000000000003274       0x44 ./UART.o
                0x0000000000003274                UART_get_string
 .text.UART_string
                0x00000000000032b8       0x30 ./UART.o
                0x00000000000032b8                UART_string
 .text.UART_integer_digit
                0x00000000000032e8       0x58 ./UART.o
                0x00000000000032e8                UART_integer_digit
 .text.UART_integer
                0x0000000000003340       0x28 ./UART.o
                0x0000000000003340                UART_integer
 .text.UART_newline
                0x0000000000003368       0x1c ./UART.o
                0x0000000000003368                UART_newline
 .text.UART_Htab
                0x0000000000003384       0x14 ./UART.o
                0x0000000000003384                UART_Htab
 .text.UART_float
                0x0000000000003398      0x130 ./UART.o
                0x0000000000003398                UART_float
 .text.UARTwrite
                0x00000000000034c8       0x50 ./UART.o
                0x00000000000034c8                UARTwrite
 .text.UARTvprintf
                0x0000000000003518      0x410 ./UART.o
                0x0000000000003518                UARTvprintf
 .text.UARTprintf
                0x0000000000003928       0x24 ./UART.o
                0x0000000000003928                UARTprintf
 .text.ResetISR
                0x000000000000394c       0x6c ./tm4c123gh6pm_startup_ccs_gcc.o
                0x000000000000394c                ResetISR
 .text.NmiSR    0x00000000000039b8        0x6 ./tm4c123gh6pm_startup_ccs_gcc.o
 .text.FaultISR
                0x00000000000039be        0x6 ./tm4c123gh6pm_startup_ccs_gcc.o
 .text.IntDefaultHandler
                0x00000000000039c4        0x6 ./tm4c123gh6pm_startup_ccs_gcc.o
 .text.ustrncpy
                0x00000000000039ca       0x6a ./ustdlib.o
                0x00000000000039ca                ustrncpy
 .text.uvsnprintf
                0x0000000000003a34      0x504 ./ustdlib.o
                0x0000000000003a34                uvsnprintf
 .text.usprintf
                0x0000000000003f38       0x30 ./ustdlib.o
                0x0000000000003f38                usprintf
 .text.usnprintf
                0x0000000000003f68       0x30 ./ustdlib.o
                0x0000000000003f68                usnprintf
 .text.ulocaltime
                0x0000000000003f98      0x17c ./ustdlib.o
                0x0000000000003f98                ulocaltime
 .text.ucmptime
                0x0000000000004114       0xe4 ./ustdlib.o
 .text.umktime  0x00000000000041f8       0x8c ./ustdlib.o
                0x00000000000041f8                umktime
 .text.ustrtoul
                0x0000000000004284      0x150 ./ustdlib.o
                0x0000000000004284                ustrtoul
 .text.ustrtof  0x00000000000043d4      0x274 ./ustdlib.o
                0x00000000000043d4                ustrtof
 .text.ustrlen  0x0000000000004648       0x2e ./ustdlib.o
                0x0000000000004648                ustrlen
 .text.ustrstr  0x0000000000004676       0x40 ./ustdlib.o
                0x0000000000004676                ustrstr
 .text.ustrncasecmp
                0x00000000000046b6       0xa2 ./ustdlib.o
                0x00000000000046b6                ustrncasecmp
 .text.ustrcasecmp
                0x0000000000004758       0x20 ./ustdlib.o
                0x0000000000004758                ustrcasecmp
 .text.ustrncmp
                0x0000000000004778       0x6a ./ustdlib.o
                0x0000000000004778                ustrncmp
 .text.ustrcmp  0x00000000000047e2       0x20 ./ustdlib.o
                0x00000000000047e2                ustrcmp
 *fill*         0x0000000000004802        0x2 
 .text.usrand   0x0000000000004804       0x20 ./ustdlib.o
                0x0000000000004804                usrand
 .text.urand    0x0000000000004824       0x30 ./ustdlib.o
                0x0000000000004824                urand
 .text.exit     0x0000000000004854       0x20 /home/kaviya/ti/ccsv7/tools/compiler/gcc-arm-none-eabi-6-2017-q1-update/bin/../lib/gcc/arm-none-eabi/6.3.1/../../../../arm-none-eabi/lib/thumb/v7e-m/fpv4-sp/hard/libc.a(lib_a-exit.o)
                0x0000000000004854                exit
 .text.__libc_init_array
                0x0000000000004874       0x50 /home/kaviya/ti/ccsv7/tools/compiler/gcc-arm-none-eabi-6-2017-q1-update/bin/../lib/gcc/arm-none-eabi/6.3.1/../../../../arm-none-eabi/lib/thumb/v7e-m/fpv4-sp/hard/libc.a(lib_a-init.o)
                0x0000000000004874                __libc_init_array
 .text.__itoa   0x00000000000048c4       0x30 /home/kaviya/ti/ccsv7/tools/compiler/gcc-arm-none-eabi-6-2017-q1-update/bin/../lib/gcc/arm-none-eabi/6.3.1/../../../../arm-none-eabi/lib/thumb/v7e-m/fpv4-sp/hard/libc.a(lib_a-itoa.o)
                0x00000000000048c4                __itoa
 .text.itoa     0x00000000000048f4        0x4 /home/kaviya/ti/ccsv7/tools/compiler/gcc-arm-none-eabi-6-2017-q1-update/bin/../lib/gcc/arm-none-eabi/6.3.1/../../../../arm-none-eabi/lib/thumb/v7e-m/fpv4-sp/hard/libc.a(lib_a-itoa.o)
                0x00000000000048f4                itoa
 .text.memset   0x00000000000048f8       0x9c /home/kaviya/ti/ccsv7/tools/compiler/gcc-arm-none-eabi-6-2017-q1-update/bin/../lib/gcc/arm-none-eabi/6.3.1/../../../../arm-none-eabi/lib/thumb/v7e-m/fpv4-sp/hard/libc.a(lib_a-memset.o)
                0x00000000000048f8                memset
 .text._printf_r
                0x0000000000004994       0x20 /home/kaviya/ti/ccsv7/tools/compiler/gcc-arm-none-eabi-6-2017-q1-update/bin/../lib/gcc/arm-none-eabi/6.3.1/../../../../arm-none-eabi/lib/thumb/v7e-m/fpv4-sp/hard/libc.a(lib_a-printf.o)
                0x0000000000004994                _printf_r
 .text.printf   0x00000000000049b4       0x28 /home/kaviya/ti/ccsv7/tools/compiler/gcc-arm-none-eabi-6-2017-q1-update/bin/../lib/gcc/arm-none-eabi/6.3.1/../../../../arm-none-eabi/lib/thumb/v7e-m/fpv4-sp/hard/libc.a(lib_a-printf.o)
                0x00000000000049b4                printf
 .text.__utoa   0x00000000000049dc       0x80 /home/kaviya/ti/ccsv7/tools/compiler/gcc-arm-none-eabi-6-2017-q1-update/bin/../lib/gcc/arm-none-eabi/6.3.1/../../../../arm-none-eabi/lib/thumb/v7e-m/fpv4-sp/hard/libc.a(lib_a-utoa.o)
                0x00000000000049dc                __utoa
 .text.utoa     0x0000000000004a5c        0x4 /home/kaviya/ti/ccsv7/tools/compiler/gcc-arm-none-eabi-6-2017-q1-update/bin/../lib/gcc/arm-none-eabi/6.3.1/../../../../arm-none-eabi/lib/thumb/v7e-m/fpv4-sp/hard/libc.a(lib_a-utoa.o)
                0x0000000000004a5c                utoa
 .text._vfprintf_r
                0x0000000000004a60     0x157c /home/kaviya/ti/ccsv7/tools/compiler/gcc-arm-none-eabi-6-2017-q1-update/bin/../lib/gcc/arm-none-eabi/6.3.1/../../../../arm-none-eabi/lib/thumb/v7e-m/fpv4-sp/hard/libc.a(lib_a-vfprintf.o)
                0x0000000000004a60                _vfprintf_r
 .text.vfprintf
                0x0000000000005fdc       0x18 /home/kaviya/ti/ccsv7/tools/compiler/gcc-arm-none-eabi-6-2017-q1-update/bin/../lib/gcc/arm-none-eabi/6.3.1/../../../../arm-none-eabi/lib/thumb/v7e-m/fpv4-sp/hard/libc.a(lib_a-vfprintf.o)
                0x0000000000005fdc                vfprintf
 .text.__sbprintf
                0x0000000000005ff4       0x84 /home/kaviya/ti/ccsv7/tools/compiler/gcc-arm-none-eabi-6-2017-q1-update/bin/../lib/gcc/arm-none-eabi/6.3.1/../../../../arm-none-eabi/lib/thumb/v7e-m/fpv4-sp/hard/libc.a(lib_a-vfprintf.o)
 .text.__swsetup_r
                0x0000000000006078       0xc8 /home/kaviya/ti/ccsv7/tools/compiler/gcc-arm-none-eabi-6-2017-q1-update/bin/../lib/gcc/arm-none-eabi/6.3.1/../../../../arm-none-eabi/lib/thumb/v7e-m/fpv4-sp/hard/libc.a(lib_a-wsetup.o)
                0x0000000000006078                __swsetup_r
 .text.startup.register_fini
                0x0000000000006140       0x14 /home/kaviya/ti/ccsv7/tools/compiler/gcc-arm-none-eabi-6-2017-q1-update/bin/../lib/gcc/arm-none-eabi/6.3.1/../../../../arm-none-eabi/lib/thumb/v7e-m/fpv4-sp/hard/libc.a(lib_a-__call_atexit.o)
 .text.__call_exitprocs
                0x0000000000006154       0xe8 /home/kaviya/ti/ccsv7/tools/compiler/gcc-arm-none-eabi-6-2017-q1-update/bin/../lib/gcc/arm-none-eabi/6.3.1/../../../../arm-none-eabi/lib/thumb/v7e-m/fpv4-sp/hard/libc.a(lib_a-__call_atexit.o)
                0x0000000000006154                __call_exitprocs
 .text.atexit   0x000000000000623c        0xc /home/kaviya/ti/ccsv7/tools/compiler/gcc-arm-none-eabi-6-2017-q1-update/bin/../lib/gcc/arm-none-eabi/6.3.1/../../../../arm-none-eabi/lib/thumb/v7e-m/fpv4-sp/hard/libc.a(lib_a-atexit.o)
                0x000000000000623c                atexit
 .text.quorem   0x0000000000006248      0x128 /home/kaviya/ti/ccsv7/tools/compiler/gcc-arm-none-eabi-6-2017-q1-update/bin/../lib/gcc/arm-none-eabi/6.3.1/../../../../arm-none-eabi/lib/thumb/v7e-m/fpv4-sp/hard/libc.a(lib_a-dtoa.o)
 .text._dtoa_r  0x0000000000006370      0xe4c /home/kaviya/ti/ccsv7/tools/compiler/gcc-arm-none-eabi-6-2017-q1-update/bin/../lib/gcc/arm-none-eabi/6.3.1/../../../../arm-none-eabi/lib/thumb/v7e-m/fpv4-sp/hard/libc.a(lib_a-dtoa.o)
                0x0000000000006370                _dtoa_r
 .text.__sflush_r
                0x00000000000071bc      0x140 /home/kaviya/ti/ccsv7/tools/compiler/gcc-arm-none-eabi-6-2017-q1-update/bin/../lib/gcc/arm-none-eabi/6.3.1/../../../../arm-none-eabi/lib/thumb/v7e-m/fpv4-sp/hard/libc.a(lib_a-fflush.o)
                0x00000000000071bc                __sflush_r
 .text._fflush_r
                0x00000000000072fc       0x54 /home/kaviya/ti/ccsv7/tools/compiler/gcc-arm-none-eabi-6-2017-q1-update/bin/../lib/gcc/arm-none-eabi/6.3.1/../../../../arm-none-eabi/lib/thumb/v7e-m/fpv4-sp/hard/libc.a(lib_a-fflush.o)
                0x00000000000072fc                _fflush_r
 .text.fflush   0x0000000000007350       0x24 /home/kaviya/ti/ccsv7/tools/compiler/gcc-arm-none-eabi-6-2017-q1-update/bin/../lib/gcc/arm-none-eabi/6.3.1/../../../../arm-none-eabi/lib/thumb/v7e-m/fpv4-sp/hard/libc.a(lib_a-fflush.o)
                0x0000000000007350                fflush
 .text._cleanup_r
                0x0000000000007374        0xc /home/kaviya/ti/ccsv7/tools/compiler/gcc-arm-none-eabi-6-2017-q1-update/bin/../lib/gcc/arm-none-eabi/6.3.1/../../../../arm-none-eabi/lib/thumb/v7e-m/fpv4-sp/hard/libc.a(lib_a-findfp.o)
                0x0000000000007374                _cleanup_r
 .text.std.isra.0
                0x0000000000007380       0x50 /home/kaviya/ti/ccsv7/tools/compiler/gcc-arm-none-eabi-6-2017-q1-update/bin/../lib/gcc/arm-none-eabi/6.3.1/../../../../arm-none-eabi/lib/thumb/v7e-m/fpv4-sp/hard/libc.a(lib_a-findfp.o)
 .text.__fp_lock
                0x00000000000073d0       0x1c /home/kaviya/ti/ccsv7/tools/compiler/gcc-arm-none-eabi-6-2017-q1-update/bin/../lib/gcc/arm-none-eabi/6.3.1/../../../../arm-none-eabi/lib/thumb/v7e-m/fpv4-sp/hard/libc.a(lib_a-findfp.o)
 .text.__fp_unlock
                0x00000000000073ec       0x1c /home/kaviya/ti/ccsv7/tools/compiler/gcc-arm-none-eabi-6-2017-q1-update/bin/../lib/gcc/arm-none-eabi/6.3.1/../../../../arm-none-eabi/lib/thumb/v7e-m/fpv4-sp/hard/libc.a(lib_a-findfp.o)
 .text.__sfmoreglue
                0x0000000000007408       0x30 /home/kaviya/ti/ccsv7/tools/compiler/gcc-arm-none-eabi-6-2017-q1-update/bin/../lib/gcc/arm-none-eabi/6.3.1/../../../../arm-none-eabi/lib/thumb/v7e-m/fpv4-sp/hard/libc.a(lib_a-findfp.o)
                0x0000000000007408                __sfmoreglue
 .text._cleanup
                0x0000000000007438       0x14 /home/kaviya/ti/ccsv7/tools/compiler/gcc-arm-none-eabi-6-2017-q1-update/bin/../lib/gcc/arm-none-eabi/6.3.1/../../../../arm-none-eabi/lib/thumb/v7e-m/fpv4-sp/hard/libc.a(lib_a-findfp.o)
                0x0000000000007438                _cleanup
 .text.__sinit  0x000000000000744c       0x58 /home/kaviya/ti/ccsv7/tools/compiler/gcc-arm-none-eabi-6-2017-q1-update/bin/../lib/gcc/arm-none-eabi/6.3.1/../../../../arm-none-eabi/lib/thumb/v7e-m/fpv4-sp/hard/libc.a(lib_a-findfp.o)
                0x000000000000744c                __sinit
 .text.__sfp    0x00000000000074a4       0xa8 /home/kaviya/ti/ccsv7/tools/compiler/gcc-arm-none-eabi-6-2017-q1-update/bin/../lib/gcc/arm-none-eabi/6.3.1/../../../../arm-none-eabi/lib/thumb/v7e-m/fpv4-sp/hard/libc.a(lib_a-findfp.o)
                0x00000000000074a4                __sfp
 .text.__sfp_lock_acquire
                0x000000000000754c        0xc /home/kaviya/ti/ccsv7/tools/compiler/gcc-arm-none-eabi-6-2017-q1-update/bin/../lib/gcc/arm-none-eabi/6.3.1/../../../../arm-none-eabi/lib/thumb/v7e-m/fpv4-sp/hard/libc.a(lib_a-findfp.o)
                0x000000000000754c                __sfp_lock_acquire
 .text.__sfp_lock_release
                0x0000000000007558        0xc /home/kaviya/ti/ccsv7/tools/compiler/gcc-arm-none-eabi-6-2017-q1-update/bin/../lib/gcc/arm-none-eabi/6.3.1/../../../../arm-none-eabi/lib/thumb/v7e-m/fpv4-sp/hard/libc.a(lib_a-findfp.o)
                0x0000000000007558                __sfp_lock_release
 .text.__sinit_lock_acquire
                0x0000000000007564        0xc /home/kaviya/ti/ccsv7/tools/compiler/gcc-arm-none-eabi-6-2017-q1-update/bin/../lib/gcc/arm-none-eabi/6.3.1/../../../../arm-none-eabi/lib/thumb/v7e-m/fpv4-sp/hard/libc.a(lib_a-findfp.o)
                0x0000000000007564                __sinit_lock_acquire
 .text.__sinit_lock_release
                0x0000000000007570        0xc /home/kaviya/ti/ccsv7/tools/compiler/gcc-arm-none-eabi-6-2017-q1-update/bin/../lib/gcc/arm-none-eabi/6.3.1/../../../../arm-none-eabi/lib/thumb/v7e-m/fpv4-sp/hard/libc.a(lib_a-findfp.o)
                0x0000000000007570                __sinit_lock_release
 .text.__fp_lock_all
                0x000000000000757c       0x24 /home/kaviya/ti/ccsv7/tools/compiler/gcc-arm-none-eabi-6-2017-q1-update/bin/../lib/gcc/arm-none-eabi/6.3.1/../../../../arm-none-eabi/lib/thumb/v7e-m/fpv4-sp/hard/libc.a(lib_a-findfp.o)
                0x000000000000757c                __fp_lock_all
 .text.__fp_unlock_all
                0x00000000000075a0       0x24 /home/kaviya/ti/ccsv7/tools/compiler/gcc-arm-none-eabi-6-2017-q1-update/bin/../lib/gcc/arm-none-eabi/6.3.1/../../../../arm-none-eabi/lib/thumb/v7e-m/fpv4-sp/hard/libc.a(lib_a-findfp.o)
                0x00000000000075a0                __fp_unlock_all
 .text.__libc_fini_array
                0x00000000000075c4       0x34 /home/kaviya/ti/ccsv7/tools/compiler/gcc-arm-none-eabi-6-2017-q1-update/bin/../lib/gcc/arm-none-eabi/6.3.1/../../../../arm-none-eabi/lib/thumb/v7e-m/fpv4-sp/hard/libc.a(lib_a-fini.o)
                0x00000000000075c4                __libc_fini_array
 .text._malloc_trim_r
                0x00000000000075f8       0xa0 /home/kaviya/ti/ccsv7/tools/compiler/gcc-arm-none-eabi-6-2017-q1-update/bin/../lib/gcc/arm-none-eabi/6.3.1/../../../../arm-none-eabi/lib/thumb/v7e-m/fpv4-sp/hard/libc.a(lib_a-freer.o)
                0x00000000000075f8                _malloc_trim_r
 .text._free_r  0x0000000000007698      0x1cc /home/kaviya/ti/ccsv7/tools/compiler/gcc-arm-none-eabi-6-2017-q1-update/bin/../lib/gcc/arm-none-eabi/6.3.1/../../../../arm-none-eabi/lib/thumb/v7e-m/fpv4-sp/hard/libc.a(lib_a-freer.o)
                0x0000000000007698                _free_r
 .text._fwalk   0x0000000000007864       0x4c /home/kaviya/ti/ccsv7/tools/compiler/gcc-arm-none-eabi-6-2017-q1-update/bin/../lib/gcc/arm-none-eabi/6.3.1/../../../../arm-none-eabi/lib/thumb/v7e-m/fpv4-sp/hard/libc.a(lib_a-fwalk.o)
                0x0000000000007864                _fwalk
 .text._fwalk_reent
                0x00000000000078b0       0x54 /home/kaviya/ti/ccsv7/tools/compiler/gcc-arm-none-eabi-6-2017-q1-update/bin/../lib/gcc/arm-none-eabi/6.3.1/../../../../arm-none-eabi/lib/thumb/v7e-m/fpv4-sp/hard/libc.a(lib_a-fwalk.o)
                0x00000000000078b0                _fwalk_reent
 .text.__localeconv_l
                0x0000000000007904        0x4 /home/kaviya/ti/ccsv7/tools/compiler/gcc-arm-none-eabi-6-2017-q1-update/bin/../lib/gcc/arm-none-eabi/6.3.1/../../../../arm-none-eabi/lib/thumb/v7e-m/fpv4-sp/hard/libc.a(lib_a-localeconv.o)
                0x0000000000007904                __localeconv_l
 .text._localeconv_r
                0x0000000000007908       0x1c /home/kaviya/ti/ccsv7/tools/compiler/gcc-arm-none-eabi-6-2017-q1-update/bin/../lib/gcc/arm-none-eabi/6.3.1/../../../../arm-none-eabi/lib/thumb/v7e-m/fpv4-sp/hard/libc.a(lib_a-localeconv.o)
                0x0000000000007908                _localeconv_r
 .text.localeconv
                0x0000000000007924       0x1c /home/kaviya/ti/ccsv7/tools/compiler/gcc-arm-none-eabi-6-2017-q1-update/bin/../lib/gcc/arm-none-eabi/6.3.1/../../../../arm-none-eabi/lib/thumb/v7e-m/fpv4-sp/hard/libc.a(lib_a-localeconv.o)
                0x0000000000007924                localeconv
 .text.__retarget_lock_init
                0x0000000000007940        0x4 /home/kaviya/ti/ccsv7/tools/compiler/gcc-arm-none-eabi-6-2017-q1-update/bin/../lib/gcc/arm-none-eabi/6.3.1/../../../../arm-none-eabi/lib/thumb/v7e-m/fpv4-sp/hard/libc.a(lib_a-lock.o)
                0x0000000000007940                __retarget_lock_init
 .text.__retarget_lock_init_recursive
                0x0000000000007944        0x4 /home/kaviya/ti/ccsv7/tools/compiler/gcc-arm-none-eabi-6-2017-q1-update/bin/../lib/gcc/arm-none-eabi/6.3.1/../../../../arm-none-eabi/lib/thumb/v7e-m/fpv4-sp/hard/libc.a(lib_a-lock.o)
                0x0000000000007944                __retarget_lock_init_recursive
 .text.__retarget_lock_close
                0x0000000000007948        0x4 /home/kaviya/ti/ccsv7/tools/compiler/gcc-arm-none-eabi-6-2017-q1-update/bin/../lib/gcc/arm-none-eabi/6.3.1/../../../../arm-none-eabi/lib/thumb/v7e-m/fpv4-sp/hard/libc.a(lib_a-lock.o)
                0x0000000000007948                __retarget_lock_close
 .text.__retarget_lock_close_recursive
                0x000000000000794c        0x4 /home/kaviya/ti/ccsv7/tools/compiler/gcc-arm-none-eabi-6-2017-q1-update/bin/../lib/gcc/arm-none-eabi/6.3.1/../../../../arm-none-eabi/lib/thumb/v7e-m/fpv4-sp/hard/libc.a(lib_a-lock.o)
                0x000000000000794c                __retarget_lock_close_recursive
 .text.__retarget_lock_acquire
                0x0000000000007950        0x4 /home/kaviya/ti/ccsv7/tools/compiler/gcc-arm-none-eabi-6-2017-q1-update/bin/../lib/gcc/arm-none-eabi/6.3.1/../../../../arm-none-eabi/lib/thumb/v7e-m/fpv4-sp/hard/libc.a(lib_a-lock.o)
                0x0000000000007950                __retarget_lock_acquire
 .text.__retarget_lock_acquire_recursive
                0x0000000000007954        0x4 /home/kaviya/ti/ccsv7/tools/compiler/gcc-arm-none-eabi-6-2017-q1-update/bin/../lib/gcc/arm-none-eabi/6.3.1/../../../../arm-none-eabi/lib/thumb/v7e-m/fpv4-sp/hard/libc.a(lib_a-lock.o)
                0x0000000000007954                __retarget_lock_acquire_recursive
 .text.__retarget_lock_try_acquire
                0x0000000000007958        0x4 /home/kaviya/ti/ccsv7/tools/compiler/gcc-arm-none-eabi-6-2017-q1-update/bin/../lib/gcc/arm-none-eabi/6.3.1/../../../../arm-none-eabi/lib/thumb/v7e-m/fpv4-sp/hard/libc.a(lib_a-lock.o)
                0x0000000000007958                __retarget_lock_try_acquire
 .text.__retarget_lock_try_acquire_recursive
                0x000000000000795c        0x4 /home/kaviya/ti/ccsv7/tools/compiler/gcc-arm-none-eabi-6-2017-q1-update/bin/../lib/gcc/arm-none-eabi/6.3.1/../../../../arm-none-eabi/lib/thumb/v7e-m/fpv4-sp/hard/libc.a(lib_a-lock.o)
                0x000000000000795c                __retarget_lock_try_acquire_recursive
 .text.__retarget_lock_release
                0x0000000000007960        0x4 /home/kaviya/ti/ccsv7/tools/compiler/gcc-arm-none-eabi-6-2017-q1-update/bin/../lib/gcc/arm-none-eabi/6.3.1/../../../../arm-none-eabi/lib/thumb/v7e-m/fpv4-sp/hard/libc.a(lib_a-lock.o)
                0x0000000000007960                __retarget_lock_release
 .text.__retarget_lock_release_recursive
                0x0000000000007964        0x4 /home/kaviya/ti/ccsv7/tools/compiler/gcc-arm-none-eabi-6-2017-q1-update/bin/../lib/gcc/arm-none-eabi/6.3.1/../../../../arm-none-eabi/lib/thumb/v7e-m/fpv4-sp/hard/libc.a(lib_a-lock.o)
                0x0000000000007964                __retarget_lock_release_recursive
 .text.__swhatbuf_r
                0x0000000000007968       0x5c /home/kaviya/ti/ccsv7/tools/compiler/gcc-arm-none-eabi-6-2017-q1-update/bin/../lib/gcc/arm-none-eabi/6.3.1/../../../../arm-none-eabi/lib/thumb/v7e-m/fpv4-sp/hard/libc.a(lib_a-makebuf.o)
                0x0000000000007968                __swhatbuf_r
 .text.__smakebuf_r
                0x00000000000079c4       0x94 /home/kaviya/ti/ccsv7/tools/compiler/gcc-arm-none-eabi-6-2017-q1-update/bin/../lib/gcc/arm-none-eabi/6.3.1/../../../../arm-none-eabi/lib/thumb/v7e-m/fpv4-sp/hard/libc.a(lib_a-makebuf.o)
                0x00000000000079c4                __smakebuf_r
 .text._malloc_r
                0x0000000000007a58      0x560 /home/kaviya/ti/ccsv7/tools/compiler/gcc-arm-none-eabi-6-2017-q1-update/bin/../lib/gcc/arm-none-eabi/6.3.1/../../../../arm-none-eabi/lib/thumb/v7e-m/fpv4-sp/hard/libc.a(lib_a-mallocr.o)
                0x0000000000007a58                _malloc_r
 .text.__malloc_lock
                0x0000000000007fb8        0xc /home/kaviya/ti/ccsv7/tools/compiler/gcc-arm-none-eabi-6-2017-q1-update/bin/../lib/gcc/arm-none-eabi/6.3.1/../../../../arm-none-eabi/lib/thumb/v7e-m/fpv4-sp/hard/libc.a(lib_a-mlock.o)
                0x0000000000007fb8                __malloc_lock
 .text.__malloc_unlock
                0x0000000000007fc4        0xc /home/kaviya/ti/ccsv7/tools/compiler/gcc-arm-none-eabi-6-2017-q1-update/bin/../lib/gcc/arm-none-eabi/6.3.1/../../../../arm-none-eabi/lib/thumb/v7e-m/fpv4-sp/hard/libc.a(lib_a-mlock.o)
                0x0000000000007fc4                __malloc_unlock
 .text._Balloc  0x0000000000007fd0       0x4c /home/kaviya/ti/ccsv7/tools/compiler/gcc-arm-none-eabi-6-2017-q1-update/bin/../lib/gcc/arm-none-eabi/6.3.1/../../../../arm-none-eabi/lib/thumb/v7e-m/fpv4-sp/hard/libc.a(lib_a-mprec.o)
                0x0000000000007fd0                _Balloc
 .text._Bfree   0x000000000000801c       0x14 /home/kaviya/ti/ccsv7/tools/compiler/gcc-arm-none-eabi-6-2017-q1-update/bin/../lib/gcc/arm-none-eabi/6.3.1/../../../../arm-none-eabi/lib/thumb/v7e-m/fpv4-sp/hard/libc.a(lib_a-mprec.o)
                0x000000000000801c                _Bfree
 .text.__multadd
                0x0000000000008030       0x80 /home/kaviya/ti/ccsv7/tools/compiler/gcc-arm-none-eabi-6-2017-q1-update/bin/../lib/gcc/arm-none-eabi/6.3.1/../../../../arm-none-eabi/lib/thumb/v7e-m/fpv4-sp/hard/libc.a(lib_a-mprec.o)
                0x0000000000008030                __multadd
 .text.__s2b    0x00000000000080b0       0x9c /home/kaviya/ti/ccsv7/tools/compiler/gcc-arm-none-eabi-6-2017-q1-update/bin/../lib/gcc/arm-none-eabi/6.3.1/../../../../arm-none-eabi/lib/thumb/v7e-m/fpv4-sp/hard/libc.a(lib_a-mprec.o)
                0x00000000000080b0                __s2b
 .text.__hi0bits
                0x000000000000814c       0x40 /home/kaviya/ti/ccsv7/tools/compiler/gcc-arm-none-eabi-6-2017-q1-update/bin/../lib/gcc/arm-none-eabi/6.3.1/../../../../arm-none-eabi/lib/thumb/v7e-m/fpv4-sp/hard/libc.a(lib_a-mprec.o)
                0x000000000000814c                __hi0bits
 .text.__lo0bits
                0x000000000000818c       0x60 /home/kaviya/ti/ccsv7/tools/compiler/gcc-arm-none-eabi-6-2017-q1-update/bin/../lib/gcc/arm-none-eabi/6.3.1/../../../../arm-none-eabi/lib/thumb/v7e-m/fpv4-sp/hard/libc.a(lib_a-mprec.o)
                0x000000000000818c                __lo0bits
 .text.__i2b    0x00000000000081ec       0x14 /home/kaviya/ti/ccsv7/tools/compiler/gcc-arm-none-eabi-6-2017-q1-update/bin/../lib/gcc/arm-none-eabi/6.3.1/../../../../arm-none-eabi/lib/thumb/v7e-m/fpv4-sp/hard/libc.a(lib_a-mprec.o)
                0x00000000000081ec                __i2b
 .text.__multiply
                0x0000000000008200      0x124 /home/kaviya/ti/ccsv7/tools/compiler/gcc-arm-none-eabi-6-2017-q1-update/bin/../lib/gcc/arm-none-eabi/6.3.1/../../../../arm-none-eabi/lib/thumb/v7e-m/fpv4-sp/hard/libc.a(lib_a-mprec.o)
                0x0000000000008200                __multiply
 .text.__pow5mult
                0x0000000000008324       0xa0 /home/kaviya/ti/ccsv7/tools/compiler/gcc-arm-none-eabi-6-2017-q1-update/bin/../lib/gcc/arm-none-eabi/6.3.1/../../../../arm-none-eabi/lib/thumb/v7e-m/fpv4-sp/hard/libc.a(lib_a-mprec.o)
                0x0000000000008324                __pow5mult
 .text.__lshift
                0x00000000000083c4       0xa4 /home/kaviya/ti/ccsv7/tools/compiler/gcc-arm-none-eabi-6-2017-q1-update/bin/../lib/gcc/arm-none-eabi/6.3.1/../../../../arm-none-eabi/lib/thumb/v7e-m/fpv4-sp/hard/libc.a(lib_a-mprec.o)
                0x00000000000083c4                __lshift
 .text.__mcmp   0x0000000000008468       0x38 /home/kaviya/ti/ccsv7/tools/compiler/gcc-arm-none-eabi-6-2017-q1-update/bin/../lib/gcc/arm-none-eabi/6.3.1/../../../../arm-none-eabi/lib/thumb/v7e-m/fpv4-sp/hard/libc.a(lib_a-mprec.o)
                0x0000000000008468                __mcmp
 .text.__mdiff  0x00000000000084a0      0x108 /home/kaviya/ti/ccsv7/tools/compiler/gcc-arm-none-eabi-6-2017-q1-update/bin/../lib/gcc/arm-none-eabi/6.3.1/../../../../arm-none-eabi/lib/thumb/v7e-m/fpv4-sp/hard/libc.a(lib_a-mprec.o)
                0x00000000000084a0                __mdiff
 .text.__ulp    0x00000000000085a8       0x54 /home/kaviya/ti/ccsv7/tools/compiler/gcc-arm-none-eabi-6-2017-q1-update/bin/../lib/gcc/arm-none-eabi/6.3.1/../../../../arm-none-eabi/lib/thumb/v7e-m/fpv4-sp/hard/libc.a(lib_a-mprec.o)
                0x00000000000085a8                __ulp
 .text.__b2d    0x00000000000085fc       0xc4 /home/kaviya/ti/ccsv7/tools/compiler/gcc-arm-none-eabi-6-2017-q1-update/bin/../lib/gcc/arm-none-eabi/6.3.1/../../../../arm-none-eabi/lib/thumb/v7e-m/fpv4-sp/hard/libc.a(lib_a-mprec.o)
                0x00000000000085fc                __b2d
 .text.__d2b    0x00000000000086c0       0xbc /home/kaviya/ti/ccsv7/tools/compiler/gcc-arm-none-eabi-6-2017-q1-update/bin/../lib/gcc/arm-none-eabi/6.3.1/../../../../arm-none-eabi/lib/thumb/v7e-m/fpv4-sp/hard/libc.a(lib_a-mprec.o)
                0x00000000000086c0                __d2b
 .text.__ratio  0x000000000000877c       0x60 /home/kaviya/ti/ccsv7/tools/compiler/gcc-arm-none-eabi-6-2017-q1-update/bin/../lib/gcc/arm-none-eabi/6.3.1/../../../../arm-none-eabi/lib/thumb/v7e-m/fpv4-sp/hard/libc.a(lib_a-mprec.o)
                0x000000000000877c                __ratio
 .text._mprec_log10
                0x00000000000087dc       0x40 /home/kaviya/ti/ccsv7/tools/compiler/gcc-arm-none-eabi-6-2017-q1-update/bin/../lib/gcc/arm-none-eabi/6.3.1/../../../../arm-none-eabi/lib/thumb/v7e-m/fpv4-sp/hard/libc.a(lib_a-mprec.o)
                0x00000000000087dc                _mprec_log10
 .text.__copybits
                0x000000000000881c       0x48 /home/kaviya/ti/ccsv7/tools/compiler/gcc-arm-none-eabi-6-2017-q1-update/bin/../lib/gcc/arm-none-eabi/6.3.1/../../../../arm-none-eabi/lib/thumb/v7e-m/fpv4-sp/hard/libc.a(lib_a-mprec.o)
                0x000000000000881c                __copybits
 .text.__any_on
                0x0000000000008864       0x60 /home/kaviya/ti/ccsv7/tools/compiler/gcc-arm-none-eabi-6-2017-q1-update/bin/../lib/gcc/arm-none-eabi/6.3.1/../../../../arm-none-eabi/lib/thumb/v7e-m/fpv4-sp/hard/libc.a(lib_a-mprec.o)
                0x0000000000008864                __any_on
 .text._sbrk_r  0x00000000000088c4       0x24 /home/kaviya/ti/ccsv7/tools/compiler/gcc-arm-none-eabi-6-2017-q1-update/bin/../lib/gcc/arm-none-eabi/6.3.1/../../../../arm-none-eabi/lib/thumb/v7e-m/fpv4-sp/hard/libc.a(lib_a-sbrkr.o)
                0x00000000000088c4                _sbrk_r
 .text.__sread  0x00000000000088e8       0x24 /home/kaviya/ti/ccsv7/tools/compiler/gcc-arm-none-eabi-6-2017-q1-update/bin/../lib/gcc/arm-none-eabi/6.3.1/../../../../arm-none-eabi/lib/thumb/v7e-m/fpv4-sp/hard/libc.a(lib_a-stdio.o)
                0x00000000000088e8                __sread
 .text.__seofread
                0x000000000000890c        0x4 /home/kaviya/ti/ccsv7/tools/compiler/gcc-arm-none-eabi-6-2017-q1-update/bin/../lib/gcc/arm-none-eabi/6.3.1/../../../../arm-none-eabi/lib/thumb/v7e-m/fpv4-sp/hard/libc.a(lib_a-stdio.o)
                0x000000000000890c                __seofread
 .text.__swrite
                0x0000000000008910       0x3c /home/kaviya/ti/ccsv7/tools/compiler/gcc-arm-none-eabi-6-2017-q1-update/bin/../lib/gcc/arm-none-eabi/6.3.1/../../../../arm-none-eabi/lib/thumb/v7e-m/fpv4-sp/hard/libc.a(lib_a-stdio.o)
                0x0000000000008910                __swrite
 .text.__sseek  0x000000000000894c       0x20 /home/kaviya/ti/ccsv7/tools/compiler/gcc-arm-none-eabi-6-2017-q1-update/bin/../lib/gcc/arm-none-eabi/6.3.1/../../../../arm-none-eabi/lib/thumb/v7e-m/fpv4-sp/hard/libc.a(lib_a-stdio.o)
                0x000000000000894c                __sseek
 .text.__sclose
                0x000000000000896c        0x8 /home/kaviya/ti/ccsv7/tools/compiler/gcc-arm-none-eabi-6-2017-q1-update/bin/../lib/gcc/arm-none-eabi/6.3.1/../../../../arm-none-eabi/lib/thumb/v7e-m/fpv4-sp/hard/libc.a(lib_a-stdio.o)
                0x000000000000896c                __sclose
 .text.__sprint_r.part.0
                0x0000000000008974       0x80 /home/kaviya/ti/ccsv7/tools/compiler/gcc-arm-none-eabi-6-2017-q1-update/bin/../lib/gcc/arm-none-eabi/6.3.1/../../../../arm-none-eabi/lib/thumb/v7e-m/fpv4-sp/hard/libc.a(lib_a-vfiprintf.o)
 .text.__sprint_r
                0x00000000000089f4       0x14 /home/kaviya/ti/ccsv7/tools/compiler/gcc-arm-none-eabi-6-2017-q1-update/bin/../lib/gcc/arm-none-eabi/6.3.1/../../../../arm-none-eabi/lib/thumb/v7e-m/fpv4-sp/hard/libc.a(lib_a-vfiprintf.o)
                0x00000000000089f4                __sprint_r
 .text._vfiprintf_r
                0x0000000000008a08      0xc90 /home/kaviya/ti/ccsv7/tools/compiler/gcc-arm-none-eabi-6-2017-q1-update/bin/../lib/gcc/arm-none-eabi/6.3.1/../../../../arm-none-eabi/lib/thumb/v7e-m/fpv4-sp/hard/libc.a(lib_a-vfiprintf.o)
                0x0000000000008a08                _vfiprintf_r
 .text.vfiprintf
                0x0000000000009698       0x18 /home/kaviya/ti/ccsv7/tools/compiler/gcc-arm-none-eabi-6-2017-q1-update/bin/../lib/gcc/arm-none-eabi/6.3.1/../../../../arm-none-eabi/lib/thumb/v7e-m/fpv4-sp/hard/libc.a(lib_a-vfiprintf.o)
                0x0000000000009698                vfiprintf
 .text.__sbprintf
                0x00000000000096b0       0x84 /home/kaviya/ti/ccsv7/tools/compiler/gcc-arm-none-eabi-6-2017-q1-update/bin/../lib/gcc/arm-none-eabi/6.3.1/../../../../arm-none-eabi/lib/thumb/v7e-m/fpv4-sp/hard/libc.a(lib_a-vfiprintf.o)
 .text._write_r
                0x0000000000009734       0x2c /home/kaviya/ti/ccsv7/tools/compiler/gcc-arm-none-eabi-6-2017-q1-update/bin/../lib/gcc/arm-none-eabi/6.3.1/../../../../arm-none-eabi/lib/thumb/v7e-m/fpv4-sp/hard/libc.a(lib_a-writer.o)
                0x0000000000009734                _write_r
 .text.__register_exitproc
                0x0000000000009760       0xc4 /home/kaviya/ti/ccsv7/tools/compiler/gcc-arm-none-eabi-6-2017-q1-update/bin/../lib/gcc/arm-none-eabi/6.3.1/../../../../arm-none-eabi/lib/thumb/v7e-m/fpv4-sp/hard/libc.a(lib_a-__atexit.o)
                0x0000000000009760                __register_exitproc
 .text._calloc_r
                0x0000000000009824       0x60 /home/kaviya/ti/ccsv7/tools/compiler/gcc-arm-none-eabi-6-2017-q1-update/bin/../lib/gcc/arm-none-eabi/6.3.1/../../../../arm-none-eabi/lib/thumb/v7e-m/fpv4-sp/hard/libc.a(lib_a-callocr.o)
                0x0000000000009824                _calloc_r
 .text._close_r
                0x0000000000009884       0x24 /home/kaviya/ti/ccsv7/tools/compiler/gcc-arm-none-eabi-6-2017-q1-update/bin/../lib/gcc/arm-none-eabi/6.3.1/../../../../arm-none-eabi/lib/thumb/v7e-m/fpv4-sp/hard/libc.a(lib_a-closer.o)
                0x0000000000009884                _close_r
 .text._fclose_r
                0x00000000000098a8       0xc4 /home/kaviya/ti/ccsv7/tools/compiler/gcc-arm-none-eabi-6-2017-q1-update/bin/../lib/gcc/arm-none-eabi/6.3.1/../../../../arm-none-eabi/lib/thumb/v7e-m/fpv4-sp/hard/libc.a(lib_a-fclose.o)
                0x00000000000098a8                _fclose_r
 .text.fclose   0x000000000000996c       0x10 /home/kaviya/ti/ccsv7/tools/compiler/gcc-arm-none-eabi-6-2017-q1-update/bin/../lib/gcc/arm-none-eabi/6.3.1/../../../../arm-none-eabi/lib/thumb/v7e-m/fpv4-sp/hard/libc.a(lib_a-fclose.o)
                0x000000000000996c                fclose
 .text.__fputwc
                0x000000000000997c       0xa0 /home/kaviya/ti/ccsv7/tools/compiler/gcc-arm-none-eabi-6-2017-q1-update/bin/../lib/gcc/arm-none-eabi/6.3.1/../../../../arm-none-eabi/lib/thumb/v7e-m/fpv4-sp/hard/libc.a(lib_a-fputwc.o)
                0x000000000000997c                __fputwc
 .text._fputwc_r
                0x0000000000009a1c       0x68 /home/kaviya/ti/ccsv7/tools/compiler/gcc-arm-none-eabi-6-2017-q1-update/bin/../lib/gcc/arm-none-eabi/6.3.1/../../../../arm-none-eabi/lib/thumb/v7e-m/fpv4-sp/hard/libc.a(lib_a-fputwc.o)
                0x0000000000009a1c                _fputwc_r
 .text.fputwc   0x0000000000009a84       0x28 /home/kaviya/ti/ccsv7/tools/compiler/gcc-arm-none-eabi-6-2017-q1-update/bin/../lib/gcc/arm-none-eabi/6.3.1/../../../../arm-none-eabi/lib/thumb/v7e-m/fpv4-sp/hard/libc.a(lib_a-fputwc.o)
                0x0000000000009a84                fputwc
 .text._fstat_r
                0x0000000000009aac       0x28 /home/kaviya/ti/ccsv7/tools/compiler/gcc-arm-none-eabi-6-2017-q1-update/bin/../lib/gcc/arm-none-eabi/6.3.1/../../../../arm-none-eabi/lib/thumb/v7e-m/fpv4-sp/hard/libc.a(lib_a-fstatr.o)
                0x0000000000009aac                _fstat_r
 .text.__sfvwrite_r
                0x0000000000009ad4      0x2f0 /home/kaviya/ti/ccsv7/tools/compiler/gcc-arm-none-eabi-6-2017-q1-update/bin/../lib/gcc/arm-none-eabi/6.3.1/../../../../arm-none-eabi/lib/thumb/v7e-m/fpv4-sp/hard/libc.a(lib_a-fvwrite.o)
                0x0000000000009ad4                __sfvwrite_r
 .text._isatty_r
                0x0000000000009dc4       0x24 /home/kaviya/ti/ccsv7/tools/compiler/gcc-arm-none-eabi-6-2017-q1-update/bin/../lib/gcc/arm-none-eabi/6.3.1/../../../../arm-none-eabi/lib/thumb/v7e-m/fpv4-sp/hard/libc.a(lib_a-isattyr.o)
                0x0000000000009dc4                _isatty_r
 .text._setlocale_r
                0x0000000000009de8       0x40 /home/kaviya/ti/ccsv7/tools/compiler/gcc-arm-none-eabi-6-2017-q1-update/bin/../lib/gcc/arm-none-eabi/6.3.1/../../../../arm-none-eabi/lib/thumb/v7e-m/fpv4-sp/hard/libc.a(lib_a-locale.o)
                0x0000000000009de8                _setlocale_r
 .text.__locale_mb_cur_max
                0x0000000000009e28       0x1c /home/kaviya/ti/ccsv7/tools/compiler/gcc-arm-none-eabi-6-2017-q1-update/bin/../lib/gcc/arm-none-eabi/6.3.1/../../../../arm-none-eabi/lib/thumb/v7e-m/fpv4-sp/hard/libc.a(lib_a-locale.o)
                0x0000000000009e28                __locale_mb_cur_max
 .text.__locale_ctype_ptr_l
                0x0000000000009e44        0x8 /home/kaviya/ti/ccsv7/tools/compiler/gcc-arm-none-eabi-6-2017-q1-update/bin/../lib/gcc/arm-none-eabi/6.3.1/../../../../arm-none-eabi/lib/thumb/v7e-m/fpv4-sp/hard/libc.a(lib_a-locale.o)
                0x0000000000009e44                __locale_ctype_ptr_l
 .text.__locale_ctype_ptr
                0x0000000000009e4c       0x1c /home/kaviya/ti/ccsv7/tools/compiler/gcc-arm-none-eabi-6-2017-q1-update/bin/../lib/gcc/arm-none-eabi/6.3.1/../../../../arm-none-eabi/lib/thumb/v7e-m/fpv4-sp/hard/libc.a(lib_a-locale.o)
                0x0000000000009e4c                __locale_ctype_ptr
 .text.setlocale
                0x0000000000009e68       0x10 /home/kaviya/ti/ccsv7/tools/compiler/gcc-arm-none-eabi-6-2017-q1-update/bin/../lib/gcc/arm-none-eabi/6.3.1/../../../../arm-none-eabi/lib/thumb/v7e-m/fpv4-sp/hard/libc.a(lib_a-locale.o)
                0x0000000000009e68                setlocale
 .text._lseek_r
                0x0000000000009e78       0x2c /home/kaviya/ti/ccsv7/tools/compiler/gcc-arm-none-eabi-6-2017-q1-update/bin/../lib/gcc/arm-none-eabi/6.3.1/../../../../arm-none-eabi/lib/thumb/v7e-m/fpv4-sp/hard/libc.a(lib_a-lseekr.o)
                0x0000000000009e78                _lseek_r
 .text._mbtowc_r
                0x0000000000009ea4       0x24 /home/kaviya/ti/ccsv7/tools/compiler/gcc-arm-none-eabi-6-2017-q1-update/bin/../lib/gcc/arm-none-eabi/6.3.1/../../../../arm-none-eabi/lib/thumb/v7e-m/fpv4-sp/hard/libc.a(lib_a-mbtowc_r.o)
                0x0000000000009ea4                _mbtowc_r
 .text.__ascii_mbtowc
                0x0000000000009ec8       0x2c /home/kaviya/ti/ccsv7/tools/compiler/gcc-arm-none-eabi-6-2017-q1-update/bin/../lib/gcc/arm-none-eabi/6.3.1/../../../../arm-none-eabi/lib/thumb/v7e-m/fpv4-sp/hard/libc.a(lib_a-mbtowc_r.o)
                0x0000000000009ec8                __ascii_mbtowc
 .text.memmove  0x0000000000009ef4       0xc8 /home/kaviya/ti/ccsv7/tools/compiler/gcc-arm-none-eabi-6-2017-q1-update/bin/../lib/gcc/arm-none-eabi/6.3.1/../../../../arm-none-eabi/lib/thumb/v7e-m/fpv4-sp/hard/libc.a(lib_a-memmove.o)
                0x0000000000009ef4                memmove
 .text._read_r  0x0000000000009fbc       0x2c /home/kaviya/ti/ccsv7/tools/compiler/gcc-arm-none-eabi-6-2017-q1-update/bin/../lib/gcc/arm-none-eabi/6.3.1/../../../../arm-none-eabi/lib/thumb/v7e-m/fpv4-sp/hard/libc.a(lib_a-readr.o)
                0x0000000000009fbc                _read_r
 .text._realloc_r
                0x0000000000009fe8      0x34c /home/kaviya/ti/ccsv7/tools/compiler/gcc-arm-none-eabi-6-2017-q1-update/bin/../lib/gcc/arm-none-eabi/6.3.1/../../../../arm-none-eabi/lib/thumb/v7e-m/fpv4-sp/hard/libc.a(lib_a-reallocr.o)
                0x0000000000009fe8                _realloc_r
 .text.cleanup_glue
                0x000000000000a334       0x1c /home/kaviya/ti/ccsv7/tools/compiler/gcc-arm-none-eabi-6-2017-q1-update/bin/../lib/gcc/arm-none-eabi/6.3.1/../../../../arm-none-eabi/lib/thumb/v7e-m/fpv4-sp/hard/libc.a(lib_a-reent.o)
                0x000000000000a334                cleanup_glue
 .text._reclaim_reent
                0x000000000000a350       0x88 /home/kaviya/ti/ccsv7/tools/compiler/gcc-arm-none-eabi-6-2017-q1-update/bin/../lib/gcc/arm-none-eabi/6.3.1/../../../../arm-none-eabi/lib/thumb/v7e-m/fpv4-sp/hard/libc.a(lib_a-reent.o)
                0x000000000000a350                _reclaim_reent
 .text.__swbuf_r
                0x000000000000a3d8       0xb0 /home/kaviya/ti/ccsv7/tools/compiler/gcc-arm-none-eabi-6-2017-q1-update/bin/../lib/gcc/arm-none-eabi/6.3.1/../../../../arm-none-eabi/lib/thumb/v7e-m/fpv4-sp/hard/libc.a(lib_a-wbuf.o)
                0x000000000000a3d8                __swbuf_r
 .text.__swbuf  0x000000000000a488       0x10 /home/kaviya/ti/ccsv7/tools/compiler/gcc-arm-none-eabi-6-2017-q1-update/bin/../lib/gcc/arm-none-eabi/6.3.1/../../../../arm-none-eabi/lib/thumb/v7e-m/fpv4-sp/hard/libc.a(lib_a-wbuf.o)
                0x000000000000a488                __swbuf
 .text._wcrtomb_r
                0x000000000000a498       0x54 /home/kaviya/ti/ccsv7/tools/compiler/gcc-arm-none-eabi-6-2017-q1-update/bin/../lib/gcc/arm-none-eabi/6.3.1/../../../../arm-none-eabi/lib/thumb/v7e-m/fpv4-sp/hard/libc.a(lib_a-wcrtomb.o)
                0x000000000000a498                _wcrtomb_r
 .text.wcrtomb  0x000000000000a4ec       0x4c /home/kaviya/ti/ccsv7/tools/compiler/gcc-arm-none-eabi-6-2017-q1-update/bin/../lib/gcc/arm-none-eabi/6.3.1/../../../../arm-none-eabi/lib/thumb/v7e-m/fpv4-sp/hard/libc.a(lib_a-wcrtomb.o)
                0x000000000000a4ec                wcrtomb
 .text._wctomb_r
                0x000000000000a538       0x24 /home/kaviya/ti/ccsv7/tools/compiler/gcc-arm-none-eabi-6-2017-q1-update/bin/../lib/gcc/arm-none-eabi/6.3.1/../../../../arm-none-eabi/lib/thumb/v7e-m/fpv4-sp/hard/libc.a(lib_a-wctomb_r.o)
                0x000000000000a538                _wctomb_r
 .text.__ascii_wctomb
                0x000000000000a55c       0x1c /home/kaviya/ti/ccsv7/tools/compiler/gcc-arm-none-eabi-6-2017-q1-update/bin/../lib/gcc/arm-none-eabi/6.3.1/../../../../arm-none-eabi/lib/thumb/v7e-m/fpv4-sp/hard/libc.a(lib_a-wctomb_r.o)
                0x000000000000a55c                __ascii_wctomb
 .text.findslot
                0x000000000000a578       0x38 /home/kaviya/ti/ccsv7/tools/compiler/gcc-arm-none-eabi-6-2017-q1-update/bin/../lib/gcc/arm-none-eabi/6.3.1/../../../../arm-none-eabi/lib/thumb/v7e-m/fpv4-sp/hard/librdimon.a(rdimon-syscalls.o)
 .text.checkerror.part.0
                0x000000000000a5b0       0x1c /home/kaviya/ti/ccsv7/tools/compiler/gcc-arm-none-eabi-6-2017-q1-update/bin/../lib/gcc/arm-none-eabi/6.3.1/../../../../arm-none-eabi/lib/thumb/v7e-m/fpv4-sp/hard/librdimon.a(rdimon-syscalls.o)
 .text.initialise_monitor_handles
                0x000000000000a5cc       0xa8 /home/kaviya/ti/ccsv7/tools/compiler/gcc-arm-none-eabi-6-2017-q1-update/bin/../lib/gcc/arm-none-eabi/6.3.1/../../../../arm-none-eabi/lib/thumb/v7e-m/fpv4-sp/hard/librdimon.a(rdimon-syscalls.o)
                0x000000000000a5cc                initialise_monitor_handles
 .text._swiread
                0x000000000000a674       0x28 /home/kaviya/ti/ccsv7/tools/compiler/gcc-arm-none-eabi-6-2017-q1-update/bin/../lib/gcc/arm-none-eabi/6.3.1/../../../../arm-none-eabi/lib/thumb/v7e-m/fpv4-sp/hard/librdimon.a(rdimon-syscalls.o)
                0x000000000000a674                _swiread
 .text._read    0x000000000000a69c       0x50 /home/kaviya/ti/ccsv7/tools/compiler/gcc-arm-none-eabi-6-2017-q1-update/bin/../lib/gcc/arm-none-eabi/6.3.1/../../../../arm-none-eabi/lib/thumb/v7e-m/fpv4-sp/hard/librdimon.a(rdimon-syscalls.o)
                0x000000000000a69c                _read
 .text._swilseek
                0x000000000000a6ec       0x94 /home/kaviya/ti/ccsv7/tools/compiler/gcc-arm-none-eabi-6-2017-q1-update/bin/../lib/gcc/arm-none-eabi/6.3.1/../../../../arm-none-eabi/lib/thumb/v7e-m/fpv4-sp/hard/librdimon.a(rdimon-syscalls.o)
                0x000000000000a6ec                _swilseek
 .text._lseek   0x000000000000a780        0x4 /home/kaviya/ti/ccsv7/tools/compiler/gcc-arm-none-eabi-6-2017-q1-update/bin/../lib/gcc/arm-none-eabi/6.3.1/../../../../arm-none-eabi/lib/thumb/v7e-m/fpv4-sp/hard/librdimon.a(rdimon-syscalls.o)
                0x000000000000a780                _lseek
 .text._swiwrite
                0x000000000000a784       0x28 /home/kaviya/ti/ccsv7/tools/compiler/gcc-arm-none-eabi-6-2017-q1-update/bin/../lib/gcc/arm-none-eabi/6.3.1/../../../../arm-none-eabi/lib/thumb/v7e-m/fpv4-sp/hard/librdimon.a(rdimon-syscalls.o)
                0x000000000000a784                _swiwrite
 .text._write   0x000000000000a7ac       0x74 /home/kaviya/ti/ccsv7/tools/compiler/gcc-arm-none-eabi-6-2017-q1-update/bin/../lib/gcc/arm-none-eabi/6.3.1/../../../../arm-none-eabi/lib/thumb/v7e-m/fpv4-sp/hard/librdimon.a(rdimon-syscalls.o)
                0x000000000000a7ac                _write
 .text._swiclose
                0x000000000000a820       0x28 /home/kaviya/ti/ccsv7/tools/compiler/gcc-arm-none-eabi-6-2017-q1-update/bin/../lib/gcc/arm-none-eabi/6.3.1/../../../../arm-none-eabi/lib/thumb/v7e-m/fpv4-sp/hard/librdimon.a(rdimon-syscalls.o)
                0x000000000000a820                _swiclose
 .text._close   0x000000000000a848       0x64 /home/kaviya/ti/ccsv7/tools/compiler/gcc-arm-none-eabi-6-2017-q1-update/bin/../lib/gcc/arm-none-eabi/6.3.1/../../../../arm-none-eabi/lib/thumb/v7e-m/fpv4-sp/hard/librdimon.a(rdimon-syscalls.o)
                0x000000000000a848                _close
 .text._getpid  0x000000000000a8ac        0x4 /home/kaviya/ti/ccsv7/tools/compiler/gcc-arm-none-eabi-6-2017-q1-update/bin/../lib/gcc/arm-none-eabi/6.3.1/../../../../arm-none-eabi/lib/thumb/v7e-m/fpv4-sp/hard/librdimon.a(rdimon-syscalls.o)
                0x000000000000a8ac                _getpid
 .text._sbrk    0x000000000000a8b0       0x4c /home/kaviya/ti/ccsv7/tools/compiler/gcc-arm-none-eabi-6-2017-q1-update/bin/../lib/gcc/arm-none-eabi/6.3.1/../../../../arm-none-eabi/lib/thumb/v7e-m/fpv4-sp/hard/librdimon.a(rdimon-syscalls.o)
                0x000000000000a8b0                _sbrk
 .text._swistat
                0x000000000000a8fc       0x48 /home/kaviya/ti/ccsv7/tools/compiler/gcc-arm-none-eabi-6-2017-q1-update/bin/../lib/gcc/arm-none-eabi/6.3.1/../../../../arm-none-eabi/lib/thumb/v7e-m/fpv4-sp/hard/librdimon.a(rdimon-syscalls.o)
                0x000000000000a8fc                _swistat
 .text._fstat   0x000000000000a944       0x1c /home/kaviya/ti/ccsv7/tools/compiler/gcc-arm-none-eabi-6-2017-q1-update/bin/../lib/gcc/arm-none-eabi/6.3.1/../../../../arm-none-eabi/lib/thumb/v7e-m/fpv4-sp/hard/librdimon.a(rdimon-syscalls.o)
                0x000000000000a944                _fstat
 .text._stat    0x000000000000a960       0x3c /home/kaviya/ti/ccsv7/tools/compiler/gcc-arm-none-eabi-6-2017-q1-update/bin/../lib/gcc/arm-none-eabi/6.3.1/../../../../arm-none-eabi/lib/thumb/v7e-m/fpv4-sp/hard/librdimon.a(rdimon-syscalls.o)
                0x000000000000a960                _stat
 .text._swiopen
                0x000000000000a99c       0xd8 /home/kaviya/ti/ccsv7/tools/compiler/gcc-arm-none-eabi-6-2017-q1-update/bin/../lib/gcc/arm-none-eabi/6.3.1/../../../../arm-none-eabi/lib/thumb/v7e-m/fpv4-sp/hard/librdimon.a(rdimon-syscalls.o)
                0x000000000000a99c                _swiopen
 .text._open    0x000000000000aa74       0x14 /home/kaviya/ti/ccsv7/tools/compiler/gcc-arm-none-eabi-6-2017-q1-update/bin/../lib/gcc/arm-none-eabi/6.3.1/../../../../arm-none-eabi/lib/thumb/v7e-m/fpv4-sp/hard/librdimon.a(rdimon-syscalls.o)
                0x000000000000aa74                _open
 .text._link    0x000000000000aa88       0x10 /home/kaviya/ti/ccsv7/tools/compiler/gcc-arm-none-eabi-6-2017-q1-update/bin/../lib/gcc/arm-none-eabi/6.3.1/../../../../arm-none-eabi/lib/thumb/v7e-m/fpv4-sp/hard/librdimon.a(rdimon-syscalls.o)
                0x000000000000aa88                _link
 .text._unlink  0x000000000000aa98       0x40 /home/kaviya/ti/ccsv7/tools/compiler/gcc-arm-none-eabi-6-2017-q1-update/bin/../lib/gcc/arm-none-eabi/6.3.1/../../../../arm-none-eabi/lib/thumb/v7e-m/fpv4-sp/hard/librdimon.a(rdimon-syscalls.o)
                0x000000000000aa98                _unlink
 .text._gettimeofday
                0x000000000000aad8       0x24 /home/kaviya/ti/ccsv7/tools/compiler/gcc-arm-none-eabi-6-2017-q1-update/bin/../lib/gcc/arm-none-eabi/6.3.1/../../../../arm-none-eabi/lib/thumb/v7e-m/fpv4-sp/hard/librdimon.a(rdimon-syscalls.o)
                0x000000000000aad8                _gettimeofday
 .text._clock   0x000000000000aafc       0x14 /home/kaviya/ti/ccsv7/tools/compiler/gcc-arm-none-eabi-6-2017-q1-update/bin/../lib/gcc/arm-none-eabi/6.3.1/../../../../arm-none-eabi/lib/thumb/v7e-m/fpv4-sp/hard/librdimon.a(rdimon-syscalls.o)
                0x000000000000aafc                _clock
 .text._times   0x000000000000ab10       0x20 /home/kaviya/ti/ccsv7/tools/compiler/gcc-arm-none-eabi-6-2017-q1-update/bin/../lib/gcc/arm-none-eabi/6.3.1/../../../../arm-none-eabi/lib/thumb/v7e-m/fpv4-sp/hard/librdimon.a(rdimon-syscalls.o)
                0x000000000000ab10                _times
 .text._isatty  0x000000000000ab30       0x3c /home/kaviya/ti/ccsv7/tools/compiler/gcc-arm-none-eabi-6-2017-q1-update/bin/../lib/gcc/arm-none-eabi/6.3.1/../../../../arm-none-eabi/lib/thumb/v7e-m/fpv4-sp/hard/librdimon.a(rdimon-syscalls.o)
                0x000000000000ab30                _isatty
 .text._system  0x000000000000ab6c       0x44 /home/kaviya/ti/ccsv7/tools/compiler/gcc-arm-none-eabi-6-2017-q1-update/bin/../lib/gcc/arm-none-eabi/6.3.1/../../../../arm-none-eabi/lib/thumb/v7e-m/fpv4-sp/hard/librdimon.a(rdimon-syscalls.o)
                0x000000000000ab6c                _system
 .text._rename  0x000000000000abb0       0x3c /home/kaviya/ti/ccsv7/tools/compiler/gcc-arm-none-eabi-6-2017-q1-update/bin/../lib/gcc/arm-none-eabi/6.3.1/../../../../arm-none-eabi/lib/thumb/v7e-m/fpv4-sp/hard/librdimon.a(rdimon-syscalls.o)
                0x000000000000abb0                _rename
 .text._exit    0x000000000000abec        0x8 /home/kaviya/ti/ccsv7/tools/compiler/gcc-arm-none-eabi-6-2017-q1-update/bin/../lib/gcc/arm-none-eabi/6.3.1/../../../../arm-none-eabi/lib/thumb/v7e-m/fpv4-sp/hard/librdimon.a(rdimon-_exit.o)
                0x000000000000abec                _exit
 .text._kill    0x000000000000abf4       0x20 /home/kaviya/ti/ccsv7/tools/compiler/gcc-arm-none-eabi-6-2017-q1-update/bin/../lib/gcc/arm-none-eabi/6.3.1/../../../../arm-none-eabi/lib/thumb/v7e-m/fpv4-sp/hard/librdimon.a(rdimon-_kill.o)
                0x000000000000abf4                _kill
 .text.__errno  0x000000000000ac14        0xc /home/kaviya/ti/ccsv7/tools/compiler/gcc-arm-none-eabi-6-2017-q1-update/bin/../lib/gcc/arm-none-eabi/6.3.1/../../../../arm-none-eabi/lib/thumb/v7e-m/fpv4-sp/hard/libc.a(lib_a-errno.o)
                0x000000000000ac14                __errno
 .text.FPUEnable
                0x000000000000ac20       0x10 /home/kaviya/ti/TivaWare_C_Series-2.1.4.178/driverlib/gcc/libdriver.a(fpu.o)
                0x000000000000ac20                FPUEnable
 .text.FPUDisable
                0x000000000000ac30       0x10 /home/kaviya/ti/TivaWare_C_Series-2.1.4.178/driverlib/gcc/libdriver.a(fpu.o)
                0x000000000000ac30                FPUDisable
 .text.FPUStackingEnable
                0x000000000000ac40       0x14 /home/kaviya/ti/TivaWare_C_Series-2.1.4.178/driverlib/gcc/libdriver.a(fpu.o)
                0x000000000000ac40                FPUStackingEnable
 .text.FPULazyStackingEnable
                0x000000000000ac54       0x10 /home/kaviya/ti/TivaWare_C_Series-2.1.4.178/driverlib/gcc/libdriver.a(fpu.o)
                0x000000000000ac54                FPULazyStackingEnable
 .text.FPUStackingDisable
                0x000000000000ac64       0x10 /home/kaviya/ti/TivaWare_C_Series-2.1.4.178/driverlib/gcc/libdriver.a(fpu.o)
                0x000000000000ac64                FPUStackingDisable
 .text.FPUHalfPrecisionModeSet
                0x000000000000ac74       0x14 /home/kaviya/ti/TivaWare_C_Series-2.1.4.178/driverlib/gcc/libdriver.a(fpu.o)
                0x000000000000ac74                FPUHalfPrecisionModeSet
 .text.FPUNaNModeSet
                0x000000000000ac88       0x14 /home/kaviya/ti/TivaWare_C_Series-2.1.4.178/driverlib/gcc/libdriver.a(fpu.o)
                0x000000000000ac88                FPUNaNModeSet
 .text.FPUFlushToZeroModeSet
                0x000000000000ac9c       0x14 /home/kaviya/ti/TivaWare_C_Series-2.1.4.178/driverlib/gcc/libdriver.a(fpu.o)
                0x000000000000ac9c                FPUFlushToZeroModeSet
 .text.FPURoundingModeSet
                0x000000000000acb0       0x14 /home/kaviya/ti/TivaWare_C_Series-2.1.4.178/driverlib/gcc/libdriver.a(fpu.o)
                0x000000000000acb0                FPURoundingModeSet
 .text._GPIOIntNumberGet
                0x000000000000acc4       0x48 /home/kaviya/ti/TivaWare_C_Series-2.1.4.178/driverlib/gcc/libdriver.a(gpio.o)
 .text.GPIODirModeSet
                0x000000000000ad0c       0x2e /home/kaviya/ti/TivaWare_C_Series-2.1.4.178/driverlib/gcc/libdriver.a(gpio.o)
                0x000000000000ad0c                GPIODirModeSet
 .text.GPIODirModeGet
                0x000000000000ad3a       0x24 /home/kaviya/ti/TivaWare_C_Series-2.1.4.178/driverlib/gcc/libdriver.a(gpio.o)
                0x000000000000ad3a                GPIODirModeGet
 .text.GPIOIntTypeSet
                0x000000000000ad5e       0x5a /home/kaviya/ti/TivaWare_C_Series-2.1.4.178/driverlib/gcc/libdriver.a(gpio.o)
                0x000000000000ad5e                GPIOIntTypeSet
 .text.GPIOIntTypeGet
                0x000000000000adb8       0x4a /home/kaviya/ti/TivaWare_C_Series-2.1.4.178/driverlib/gcc/libdriver.a(gpio.o)
                0x000000000000adb8                GPIOIntTypeGet
 .text.GPIOPadConfigSet
                0x000000000000ae02      0x130 /home/kaviya/ti/TivaWare_C_Series-2.1.4.178/driverlib/gcc/libdriver.a(gpio.o)
                0x000000000000ae02                GPIOPadConfigSet
 .text.GPIOPadConfigGet
                0x000000000000af32       0xc4 /home/kaviya/ti/TivaWare_C_Series-2.1.4.178/driverlib/gcc/libdriver.a(gpio.o)
                0x000000000000af32                GPIOPadConfigGet
 .text.GPIOIntEnable
                0x000000000000aff6        0xc /home/kaviya/ti/TivaWare_C_Series-2.1.4.178/driverlib/gcc/libdriver.a(gpio.o)
                0x000000000000aff6                GPIOIntEnable
 .text.GPIOIntDisable
                0x000000000000b002        0xe /home/kaviya/ti/TivaWare_C_Series-2.1.4.178/driverlib/gcc/libdriver.a(gpio.o)
                0x000000000000b002                GPIOIntDisable
 .text.GPIOIntStatus
                0x000000000000b010        0xe /home/kaviya/ti/TivaWare_C_Series-2.1.4.178/driverlib/gcc/libdriver.a(gpio.o)
                0x000000000000b010                GPIOIntStatus
 .text.GPIOIntClear
                0x000000000000b01e        0x6 /home/kaviya/ti/TivaWare_C_Series-2.1.4.178/driverlib/gcc/libdriver.a(gpio.o)
                0x000000000000b01e                GPIOIntClear
 .text.GPIOIntRegister
                0x000000000000b024       0x1a /home/kaviya/ti/TivaWare_C_Series-2.1.4.178/driverlib/gcc/libdriver.a(gpio.o)
                0x000000000000b024                GPIOIntRegister
 .text.GPIOIntUnregister
                0x000000000000b03e       0x16 /home/kaviya/ti/TivaWare_C_Series-2.1.4.178/driverlib/gcc/libdriver.a(gpio.o)
                0x000000000000b03e                GPIOIntUnregister
 .text.GPIOIntRegisterPin
                0x000000000000b054       0x1e /home/kaviya/ti/TivaWare_C_Series-2.1.4.178/driverlib/gcc/libdriver.a(gpio.o)
                0x000000000000b054                GPIOIntRegisterPin
 .text.GPIOIntUnregisterPin
                0x000000000000b072       0x1a /home/kaviya/ti/TivaWare_C_Series-2.1.4.178/driverlib/gcc/libdriver.a(gpio.o)
                0x000000000000b072                GPIOIntUnregisterPin
 .text.GPIOPinRead
                0x000000000000b08c        0x6 /home/kaviya/ti/TivaWare_C_Series-2.1.4.178/driverlib/gcc/libdriver.a(gpio.o)
                0x000000000000b08c                GPIOPinRead
 .text.GPIOPinWrite
                0x000000000000b092        0x6 /home/kaviya/ti/TivaWare_C_Series-2.1.4.178/driverlib/gcc/libdriver.a(gpio.o)
                0x000000000000b092                GPIOPinWrite
 .text.GPIOPinTypeADC
                0x000000000000b098       0x1c /home/kaviya/ti/TivaWare_C_Series-2.1.4.178/driverlib/gcc/libdriver.a(gpio.o)
                0x000000000000b098                GPIOPinTypeADC
 .text.GPIOPinTypeCAN
                0x000000000000b0b4       0x1c /home/kaviya/ti/TivaWare_C_Series-2.1.4.178/driverlib/gcc/libdriver.a(gpio.o)
                0x000000000000b0b4                GPIOPinTypeCAN
 .text.GPIOPinTypeComparator
                0x000000000000b0d0       0x1c /home/kaviya/ti/TivaWare_C_Series-2.1.4.178/driverlib/gcc/libdriver.a(gpio.o)
                0x000000000000b0d0                GPIOPinTypeComparator
 .text.GPIOPinTypeComparatorOutput
                0x000000000000b0ec       0x1c /home/kaviya/ti/TivaWare_C_Series-2.1.4.178/driverlib/gcc/libdriver.a(gpio.o)
                0x000000000000b0ec                GPIOPinTypeComparatorOutput
 .text.GPIOPinTypeDIVSCLK
                0x000000000000b108       0x1c /home/kaviya/ti/TivaWare_C_Series-2.1.4.178/driverlib/gcc/libdriver.a(gpio.o)
                0x000000000000b108                GPIOPinTypeDIVSCLK
 .text.GPIOPinTypeEPI
                0x000000000000b124       0x1c /home/kaviya/ti/TivaWare_C_Series-2.1.4.178/driverlib/gcc/libdriver.a(gpio.o)
                0x000000000000b124                GPIOPinTypeEPI
 .text.GPIOPinTypeEthernetLED
                0x000000000000b140       0x1c /home/kaviya/ti/TivaWare_C_Series-2.1.4.178/driverlib/gcc/libdriver.a(gpio.o)
                0x000000000000b140                GPIOPinTypeEthernetLED
 .text.GPIOPinTypeEthernetMII
                0x000000000000b15c       0x1c /home/kaviya/ti/TivaWare_C_Series-2.1.4.178/driverlib/gcc/libdriver.a(gpio.o)
                0x000000000000b15c                GPIOPinTypeEthernetMII
 .text.GPIOPinTypeGPIOInput
                0x000000000000b178       0x1c /home/kaviya/ti/TivaWare_C_Series-2.1.4.178/driverlib/gcc/libdriver.a(gpio.o)
                0x000000000000b178                GPIOPinTypeGPIOInput
 .text.GPIOPinTypeGPIOOutput
                0x000000000000b194       0x1c /home/kaviya/ti/TivaWare_C_Series-2.1.4.178/driverlib/gcc/libdriver.a(gpio.o)
                0x000000000000b194                GPIOPinTypeGPIOOutput
 .text.GPIOPinTypeGPIOOutputOD
                0x000000000000b1b0       0x1c /home/kaviya/ti/TivaWare_C_Series-2.1.4.178/driverlib/gcc/libdriver.a(gpio.o)
                0x000000000000b1b0                GPIOPinTypeGPIOOutputOD
 .text.GPIOPinTypeHibernateRTCCLK
                0x000000000000b1cc       0x1c /home/kaviya/ti/TivaWare_C_Series-2.1.4.178/driverlib/gcc/libdriver.a(gpio.o)
                0x000000000000b1cc                GPIOPinTypeHibernateRTCCLK
 .text.GPIOPinTypeI2C
                0x000000000000b1e8       0x1c /home/kaviya/ti/TivaWare_C_Series-2.1.4.178/driverlib/gcc/libdriver.a(gpio.o)
                0x000000000000b1e8                GPIOPinTypeI2C
 .text.GPIOPinTypeI2CSCL
                0x000000000000b204       0x1c /home/kaviya/ti/TivaWare_C_Series-2.1.4.178/driverlib/gcc/libdriver.a(gpio.o)
                0x000000000000b204                GPIOPinTypeI2CSCL
 .text.GPIOPinTypeLCD
                0x000000000000b220       0x1c /home/kaviya/ti/TivaWare_C_Series-2.1.4.178/driverlib/gcc/libdriver.a(gpio.o)
                0x000000000000b220                GPIOPinTypeLCD
 .text.GPIOPinTypeOneWire
                0x000000000000b23c       0x1c /home/kaviya/ti/TivaWare_C_Series-2.1.4.178/driverlib/gcc/libdriver.a(gpio.o)
                0x000000000000b23c                GPIOPinTypeOneWire
 .text.GPIOPinTypePWM
                0x000000000000b258       0x1c /home/kaviya/ti/TivaWare_C_Series-2.1.4.178/driverlib/gcc/libdriver.a(gpio.o)
                0x000000000000b258                GPIOPinTypePWM
 .text.GPIOPinTypeQEI
                0x000000000000b274       0x1c /home/kaviya/ti/TivaWare_C_Series-2.1.4.178/driverlib/gcc/libdriver.a(gpio.o)
                0x000000000000b274                GPIOPinTypeQEI
 .text.GPIOPinTypeSSI
                0x000000000000b290       0x1c /home/kaviya/ti/TivaWare_C_Series-2.1.4.178/driverlib/gcc/libdriver.a(gpio.o)
                0x000000000000b290                GPIOPinTypeSSI
 .text.GPIOPinTypeTimer
                0x000000000000b2ac       0x1c /home/kaviya/ti/TivaWare_C_Series-2.1.4.178/driverlib/gcc/libdriver.a(gpio.o)
                0x000000000000b2ac                GPIOPinTypeTimer
 .text.GPIOPinTypeTrace
                0x000000000000b2c8       0x1c /home/kaviya/ti/TivaWare_C_Series-2.1.4.178/driverlib/gcc/libdriver.a(gpio.o)
                0x000000000000b2c8                GPIOPinTypeTrace
 .text.GPIOPinTypeUART
                0x000000000000b2e4       0x1c /home/kaviya/ti/TivaWare_C_Series-2.1.4.178/driverlib/gcc/libdriver.a(gpio.o)
                0x000000000000b2e4                GPIOPinTypeUART
 .text.GPIOPinTypeUSBAnalog
                0x000000000000b300       0x1c /home/kaviya/ti/TivaWare_C_Series-2.1.4.178/driverlib/gcc/libdriver.a(gpio.o)
                0x000000000000b300                GPIOPinTypeUSBAnalog
 .text.GPIOPinTypeUSBDigital
                0x000000000000b31c       0x1c /home/kaviya/ti/TivaWare_C_Series-2.1.4.178/driverlib/gcc/libdriver.a(gpio.o)
                0x000000000000b31c                GPIOPinTypeUSBDigital
 .text.GPIOPinTypeWakeHigh
                0x000000000000b338       0x1e /home/kaviya/ti/TivaWare_C_Series-2.1.4.178/driverlib/gcc/libdriver.a(gpio.o)
                0x000000000000b338                GPIOPinTypeWakeHigh
 .text.GPIOPinTypeWakeLow
                0x000000000000b356       0x1e /home/kaviya/ti/TivaWare_C_Series-2.1.4.178/driverlib/gcc/libdriver.a(gpio.o)
                0x000000000000b356                GPIOPinTypeWakeLow
 .text.GPIOPinWakeStatus
                0x000000000000b374        0x6 /home/kaviya/ti/TivaWare_C_Series-2.1.4.178/driverlib/gcc/libdriver.a(gpio.o)
                0x000000000000b374                GPIOPinWakeStatus
 *fill*         0x000000000000b37a        0x2 
 .text.GPIOPinConfigure
                0x000000000000b37c       0x4c /home/kaviya/ti/TivaWare_C_Series-2.1.4.178/driverlib/gcc/libdriver.a(gpio.o)
                0x000000000000b37c                GPIOPinConfigure
 .text.GPIODMATriggerEnable
                0x000000000000b3c8        0xc /home/kaviya/ti/TivaWare_C_Series-2.1.4.178/driverlib/gcc/libdriver.a(gpio.o)
                0x000000000000b3c8                GPIODMATriggerEnable
 .text.GPIODMATriggerDisable
                0x000000000000b3d4        0xe /home/kaviya/ti/TivaWare_C_Series-2.1.4.178/driverlib/gcc/libdriver.a(gpio.o)
                0x000000000000b3d4                GPIODMATriggerDisable
 .text.GPIOADCTriggerEnable
                0x000000000000b3e2        0xc /home/kaviya/ti/TivaWare_C_Series-2.1.4.178/driverlib/gcc/libdriver.a(gpio.o)
                0x000000000000b3e2                GPIOADCTriggerEnable
 .text.GPIOADCTriggerDisable
                0x000000000000b3ee        0xe /home/kaviya/ti/TivaWare_C_Series-2.1.4.178/driverlib/gcc/libdriver.a(gpio.o)
                0x000000000000b3ee                GPIOADCTriggerDisable
 .text._IntDefaultHandler
                0x000000000000b3fc        0x2 /home/kaviya/ti/TivaWare_C_Series-2.1.4.178/driverlib/gcc/libdriver.a(interrupt.o)
 .text.IntMasterEnable
                0x000000000000b3fe        0xe /home/kaviya/ti/TivaWare_C_Series-2.1.4.178/driverlib/gcc/libdriver.a(interrupt.o)
                0x000000000000b3fe                IntMasterEnable
 .text.IntMasterDisable
                0x000000000000b40c        0xe /home/kaviya/ti/TivaWare_C_Series-2.1.4.178/driverlib/gcc/libdriver.a(interrupt.o)
                0x000000000000b40c                IntMasterDisable
 *fill*         0x000000000000b41a        0x2 
 .text.IntRegister
                0x000000000000b41c       0x34 /home/kaviya/ti/TivaWare_C_Series-2.1.4.178/driverlib/gcc/libdriver.a(interrupt.o)
                0x000000000000b41c                IntRegister
 .text.IntUnregister
                0x000000000000b450       0x14 /home/kaviya/ti/TivaWare_C_Series-2.1.4.178/driverlib/gcc/libdriver.a(interrupt.o)
                0x000000000000b450                IntUnregister
 .text.IntPriorityGroupingSet
                0x000000000000b464       0x1c /home/kaviya/ti/TivaWare_C_Series-2.1.4.178/driverlib/gcc/libdriver.a(interrupt.o)
                0x000000000000b464                IntPriorityGroupingSet
 .text.IntPriorityGroupingGet
                0x000000000000b480       0x24 /home/kaviya/ti/TivaWare_C_Series-2.1.4.178/driverlib/gcc/libdriver.a(interrupt.o)
                0x000000000000b480                IntPriorityGroupingGet
 .text.IntPrioritySet
                0x000000000000b4a4       0x2c /home/kaviya/ti/TivaWare_C_Series-2.1.4.178/driverlib/gcc/libdriver.a(interrupt.o)
                0x000000000000b4a4                IntPrioritySet
 .text.IntPriorityGet
                0x000000000000b4d0       0x1c /home/kaviya/ti/TivaWare_C_Series-2.1.4.178/driverlib/gcc/libdriver.a(interrupt.o)
                0x000000000000b4d0                IntPriorityGet
 .text.IntEnable
                0x000000000000b4ec       0x60 /home/kaviya/ti/TivaWare_C_Series-2.1.4.178/driverlib/gcc/libdriver.a(interrupt.o)
                0x000000000000b4ec                IntEnable
 .text.IntDisable
                0x000000000000b54c       0x60 /home/kaviya/ti/TivaWare_C_Series-2.1.4.178/driverlib/gcc/libdriver.a(interrupt.o)
                0x000000000000b54c                IntDisable
 .text.IntIsEnabled
                0x000000000000b5ac       0x64 /home/kaviya/ti/TivaWare_C_Series-2.1.4.178/driverlib/gcc/libdriver.a(interrupt.o)
                0x000000000000b5ac                IntIsEnabled
 .text.IntPendSet
                0x000000000000b610       0x50 /home/kaviya/ti/TivaWare_C_Series-2.1.4.178/driverlib/gcc/libdriver.a(interrupt.o)
                0x000000000000b610                IntPendSet
 .text.IntPendClear
                0x000000000000b660       0x40 /home/kaviya/ti/TivaWare_C_Series-2.1.4.178/driverlib/gcc/libdriver.a(interrupt.o)
                0x000000000000b660                IntPendClear
 .text.IntPriorityMaskSet
                0x000000000000b6a0        0x4 /home/kaviya/ti/TivaWare_C_Series-2.1.4.178/driverlib/gcc/libdriver.a(interrupt.o)
                0x000000000000b6a0                IntPriorityMaskSet
 .text.IntPriorityMaskGet
                0x000000000000b6a4        0x4 /home/kaviya/ti/TivaWare_C_Series-2.1.4.178/driverlib/gcc/libdriver.a(interrupt.o)
                0x000000000000b6a4                IntPriorityMaskGet
 .text.IntTrigger
                0x000000000000b6a8        0xc /home/kaviya/ti/TivaWare_C_Series-2.1.4.178/driverlib/gcc/libdriver.a(interrupt.o)
                0x000000000000b6a8                IntTrigger
 .text._SSIIntNumberGet
                0x000000000000b6b4       0x44 /home/kaviya/ti/TivaWare_C_Series-2.1.4.178/driverlib/gcc/libdriver.a(ssi.o)
 .text.SSIConfigSetExpClk
                0x000000000000b6f8       0x3c /home/kaviya/ti/TivaWare_C_Series-2.1.4.178/driverlib/gcc/libdriver.a(ssi.o)
                0x000000000000b6f8                SSIConfigSetExpClk
 .text.SSIEnable
                0x000000000000b734        0xa /home/kaviya/ti/TivaWare_C_Series-2.1.4.178/driverlib/gcc/libdriver.a(ssi.o)
                0x000000000000b734                SSIEnable
 .text.SSIDisable
                0x000000000000b73e        0xa /home/kaviya/ti/TivaWare_C_Series-2.1.4.178/driverlib/gcc/libdriver.a(ssi.o)
                0x000000000000b73e                SSIDisable
 .text.SSIIntRegister
                0x000000000000b748       0x1a /home/kaviya/ti/TivaWare_C_Series-2.1.4.178/driverlib/gcc/libdriver.a(ssi.o)
                0x000000000000b748                SSIIntRegister
 .text.SSIIntUnregister
                0x000000000000b762       0x16 /home/kaviya/ti/TivaWare_C_Series-2.1.4.178/driverlib/gcc/libdriver.a(ssi.o)
                0x000000000000b762                SSIIntUnregister
 .text.SSIIntEnable
                0x000000000000b778        0x8 /home/kaviya/ti/TivaWare_C_Series-2.1.4.178/driverlib/gcc/libdriver.a(ssi.o)
                0x000000000000b778                SSIIntEnable
 .text.SSIIntDisable
                0x000000000000b780        0xa /home/kaviya/ti/TivaWare_C_Series-2.1.4.178/driverlib/gcc/libdriver.a(ssi.o)
                0x000000000000b780                SSIIntDisable
 .text.SSIIntStatus
                0x000000000000b78a        0xa /home/kaviya/ti/TivaWare_C_Series-2.1.4.178/driverlib/gcc/libdriver.a(ssi.o)
                0x000000000000b78a                SSIIntStatus
 .text.SSIIntClear
                0x000000000000b794        0x4 /home/kaviya/ti/TivaWare_C_Series-2.1.4.178/driverlib/gcc/libdriver.a(ssi.o)
                0x000000000000b794                SSIIntClear
 .text.SSIDataPut
                0x000000000000b798        0xa /home/kaviya/ti/TivaWare_C_Series-2.1.4.178/driverlib/gcc/libdriver.a(ssi.o)
                0x000000000000b798                SSIDataPut
 .text.SSIDataPutNonBlocking
                0x000000000000b7a2       0x12 /home/kaviya/ti/TivaWare_C_Series-2.1.4.178/driverlib/gcc/libdriver.a(ssi.o)
                0x000000000000b7a2                SSIDataPutNonBlocking
 .text.SSIDataGet
                0x000000000000b7b4        0xc /home/kaviya/ti/TivaWare_C_Series-2.1.4.178/driverlib/gcc/libdriver.a(ssi.o)
                0x000000000000b7b4                SSIDataGet
 .text.SSIDataGetNonBlocking
                0x000000000000b7c0       0x14 /home/kaviya/ti/TivaWare_C_Series-2.1.4.178/driverlib/gcc/libdriver.a(ssi.o)
                0x000000000000b7c0                SSIDataGetNonBlocking
 .text.SSIDMAEnable
                0x000000000000b7d4        0x8 /home/kaviya/ti/TivaWare_C_Series-2.1.4.178/driverlib/gcc/libdriver.a(ssi.o)
                0x000000000000b7d4                SSIDMAEnable
 .text.SSIDMADisable
                0x000000000000b7dc        0xa /home/kaviya/ti/TivaWare_C_Series-2.1.4.178/driverlib/gcc/libdriver.a(ssi.o)
                0x000000000000b7dc                SSIDMADisable
 .text.SSIBusy  0x000000000000b7e6        0x8 /home/kaviya/ti/TivaWare_C_Series-2.1.4.178/driverlib/gcc/libdriver.a(ssi.o)
                0x000000000000b7e6                SSIBusy
 .text.SSIClockSourceSet
                0x000000000000b7ee        0x6 /home/kaviya/ti/TivaWare_C_Series-2.1.4.178/driverlib/gcc/libdriver.a(ssi.o)
                0x000000000000b7ee                SSIClockSourceSet
 .text.SSIClockSourceGet
                0x000000000000b7f4        0x6 /home/kaviya/ti/TivaWare_C_Series-2.1.4.178/driverlib/gcc/libdriver.a(ssi.o)
                0x000000000000b7f4                SSIClockSourceGet
 .text.SSIAdvModeSet
                0x000000000000b7fa        0xc /home/kaviya/ti/TivaWare_C_Series-2.1.4.178/driverlib/gcc/libdriver.a(ssi.o)
                0x000000000000b7fa                SSIAdvModeSet
 .text.SSIAdvDataPutFrameEnd
                0x000000000000b806       0x12 /home/kaviya/ti/TivaWare_C_Series-2.1.4.178/driverlib/gcc/libdriver.a(ssi.o)
                0x000000000000b806                SSIAdvDataPutFrameEnd
 .text.SSIAdvDataPutFrameEndNonBlocking
                0x000000000000b818       0x1a /home/kaviya/ti/TivaWare_C_Series-2.1.4.178/driverlib/gcc/libdriver.a(ssi.o)
                0x000000000000b818                SSIAdvDataPutFrameEndNonBlocking
 .text.SSIAdvFrameHoldEnable
                0x000000000000b832        0xa /home/kaviya/ti/TivaWare_C_Series-2.1.4.178/driverlib/gcc/libdriver.a(ssi.o)
                0x000000000000b832                SSIAdvFrameHoldEnable
 .text.SSIAdvFrameHoldDisable
                0x000000000000b83c        0xa /home/kaviya/ti/TivaWare_C_Series-2.1.4.178/driverlib/gcc/libdriver.a(ssi.o)
                0x000000000000b83c                SSIAdvFrameHoldDisable
 *fill*         0x000000000000b846        0x2 
 .text._SysCtlMemTimingGet
                0x000000000000b848       0x24 /home/kaviya/ti/TivaWare_C_Series-2.1.4.178/driverlib/gcc/libdriver.a(sysctl.o)
 .text.SysCtlSRAMSizeGet
                0x000000000000b86c       0x10 /home/kaviya/ti/TivaWare_C_Series-2.1.4.178/driverlib/gcc/libdriver.a(sysctl.o)
                0x000000000000b86c                SysCtlSRAMSizeGet
 .text.SysCtlFlashSizeGet
                0x000000000000b87c       0x3c /home/kaviya/ti/TivaWare_C_Series-2.1.4.178/driverlib/gcc/libdriver.a(sysctl.o)
                0x000000000000b87c                SysCtlFlashSizeGet
 .text.SysCtlFlashSectorSizeGet
                0x000000000000b8b8       0x38 /home/kaviya/ti/TivaWare_C_Series-2.1.4.178/driverlib/gcc/libdriver.a(sysctl.o)
                0x000000000000b8b8                SysCtlFlashSectorSizeGet
 .text.SysCtlPeripheralPresent
                0x000000000000b8f0       0x26 /home/kaviya/ti/TivaWare_C_Series-2.1.4.178/driverlib/gcc/libdriver.a(sysctl.o)
                0x000000000000b8f0                SysCtlPeripheralPresent
 .text.SysCtlPeripheralReady
                0x000000000000b916       0x26 /home/kaviya/ti/TivaWare_C_Series-2.1.4.178/driverlib/gcc/libdriver.a(sysctl.o)
                0x000000000000b916                SysCtlPeripheralReady
 .text.SysCtlPeripheralPowerOn
                0x000000000000b93c       0x22 /home/kaviya/ti/TivaWare_C_Series-2.1.4.178/driverlib/gcc/libdriver.a(sysctl.o)
                0x000000000000b93c                SysCtlPeripheralPowerOn
 .text.SysCtlPeripheralPowerOff
                0x000000000000b95e       0x22 /home/kaviya/ti/TivaWare_C_Series-2.1.4.178/driverlib/gcc/libdriver.a(sysctl.o)
                0x000000000000b95e                SysCtlPeripheralPowerOff
 .text.SysCtlPeripheralReset
                0x000000000000b980       0x3a /home/kaviya/ti/TivaWare_C_Series-2.1.4.178/driverlib/gcc/libdriver.a(sysctl.o)
                0x000000000000b980                SysCtlPeripheralReset
 .text.SysCtlPeripheralEnable
                0x000000000000b9ba       0x22 /home/kaviya/ti/TivaWare_C_Series-2.1.4.178/driverlib/gcc/libdriver.a(sysctl.o)
                0x000000000000b9ba                SysCtlPeripheralEnable
 .text.SysCtlPeripheralDisable
                0x000000000000b9dc       0x22 /home/kaviya/ti/TivaWare_C_Series-2.1.4.178/driverlib/gcc/libdriver.a(sysctl.o)
                0x000000000000b9dc                SysCtlPeripheralDisable
 .text.SysCtlPeripheralSleepEnable
                0x000000000000b9fe       0x22 /home/kaviya/ti/TivaWare_C_Series-2.1.4.178/driverlib/gcc/libdriver.a(sysctl.o)
                0x000000000000b9fe                SysCtlPeripheralSleepEnable
 .text.SysCtlPeripheralSleepDisable
                0x000000000000ba20       0x22 /home/kaviya/ti/TivaWare_C_Series-2.1.4.178/driverlib/gcc/libdriver.a(sysctl.o)
                0x000000000000ba20                SysCtlPeripheralSleepDisable
 .text.SysCtlPeripheralDeepSleepEnable
                0x000000000000ba42       0x22 /home/kaviya/ti/TivaWare_C_Series-2.1.4.178/driverlib/gcc/libdriver.a(sysctl.o)
                0x000000000000ba42                SysCtlPeripheralDeepSleepEnable
 .text.SysCtlPeripheralDeepSleepDisable
                0x000000000000ba64       0x22 /home/kaviya/ti/TivaWare_C_Series-2.1.4.178/driverlib/gcc/libdriver.a(sysctl.o)
                0x000000000000ba64                SysCtlPeripheralDeepSleepDisable
 *fill*         0x000000000000ba86        0x2 
 .text.SysCtlPeripheralClockGating
                0x000000000000ba88       0x48 /home/kaviya/ti/TivaWare_C_Series-2.1.4.178/driverlib/gcc/libdriver.a(sysctl.o)
                0x000000000000ba88                SysCtlPeripheralClockGating
 .text.SysCtlIntRegister
                0x000000000000bad0       0x14 /home/kaviya/ti/TivaWare_C_Series-2.1.4.178/driverlib/gcc/libdriver.a(sysctl.o)
                0x000000000000bad0                SysCtlIntRegister
 .text.SysCtlIntUnregister
                0x000000000000bae4       0x12 /home/kaviya/ti/TivaWare_C_Series-2.1.4.178/driverlib/gcc/libdriver.a(sysctl.o)
                0x000000000000bae4                SysCtlIntUnregister
 *fill*         0x000000000000baf6        0x2 
 .text.SysCtlIntEnable
                0x000000000000baf8       0x10 /home/kaviya/ti/TivaWare_C_Series-2.1.4.178/driverlib/gcc/libdriver.a(sysctl.o)
                0x000000000000baf8                SysCtlIntEnable
 .text.SysCtlIntDisable
                0x000000000000bb08       0x10 /home/kaviya/ti/TivaWare_C_Series-2.1.4.178/driverlib/gcc/libdriver.a(sysctl.o)
                0x000000000000bb08                SysCtlIntDisable
 .text.SysCtlIntClear
                0x000000000000bb18        0xc /home/kaviya/ti/TivaWare_C_Series-2.1.4.178/driverlib/gcc/libdriver.a(sysctl.o)
                0x000000000000bb18                SysCtlIntClear
 .text.SysCtlIntStatus
                0x000000000000bb24       0x14 /home/kaviya/ti/TivaWare_C_Series-2.1.4.178/driverlib/gcc/libdriver.a(sysctl.o)
                0x000000000000bb24                SysCtlIntStatus
 .text.SysCtlLDOSleepSet
                0x000000000000bb38        0xc /home/kaviya/ti/TivaWare_C_Series-2.1.4.178/driverlib/gcc/libdriver.a(sysctl.o)
                0x000000000000bb38                SysCtlLDOSleepSet
 .text.SysCtlLDOSleepGet
                0x000000000000bb44        0xc /home/kaviya/ti/TivaWare_C_Series-2.1.4.178/driverlib/gcc/libdriver.a(sysctl.o)
                0x000000000000bb44                SysCtlLDOSleepGet
 .text.SysCtlLDODeepSleepSet
                0x000000000000bb50        0xc /home/kaviya/ti/TivaWare_C_Series-2.1.4.178/driverlib/gcc/libdriver.a(sysctl.o)
                0x000000000000bb50                SysCtlLDODeepSleepSet
 .text.SysCtlLDODeepSleepGet
                0x000000000000bb5c        0xc /home/kaviya/ti/TivaWare_C_Series-2.1.4.178/driverlib/gcc/libdriver.a(sysctl.o)
                0x000000000000bb5c                SysCtlLDODeepSleepGet
 .text.SysCtlSleepPowerSet
                0x000000000000bb68        0xc /home/kaviya/ti/TivaWare_C_Series-2.1.4.178/driverlib/gcc/libdriver.a(sysctl.o)
                0x000000000000bb68                SysCtlSleepPowerSet
 .text.SysCtlDeepSleepPowerSet
                0x000000000000bb74        0xc /home/kaviya/ti/TivaWare_C_Series-2.1.4.178/driverlib/gcc/libdriver.a(sysctl.o)
                0x000000000000bb74                SysCtlDeepSleepPowerSet
 .text.SysCtlReset
                0x000000000000bb80       0x10 /home/kaviya/ti/TivaWare_C_Series-2.1.4.178/driverlib/gcc/libdriver.a(sysctl.o)
                0x000000000000bb80                SysCtlReset
 .text.SysCtlSleep
                0x000000000000bb90        0x4 /home/kaviya/ti/TivaWare_C_Series-2.1.4.178/driverlib/gcc/libdriver.a(sysctl.o)
                0x000000000000bb90                SysCtlSleep
 .text.SysCtlDeepSleep
                0x000000000000bb94       0x20 /home/kaviya/ti/TivaWare_C_Series-2.1.4.178/driverlib/gcc/libdriver.a(sysctl.o)
                0x000000000000bb94                SysCtlDeepSleep
 .text.SysCtlResetCauseGet
                0x000000000000bbb4        0xc /home/kaviya/ti/TivaWare_C_Series-2.1.4.178/driverlib/gcc/libdriver.a(sysctl.o)
                0x000000000000bbb4                SysCtlResetCauseGet
 .text.SysCtlResetCauseClear
                0x000000000000bbc0       0x10 /home/kaviya/ti/TivaWare_C_Series-2.1.4.178/driverlib/gcc/libdriver.a(sysctl.o)
                0x000000000000bbc0                SysCtlResetCauseClear
 .text.SysCtlDelay
                0x000000000000bbd0        0x8 /home/kaviya/ti/TivaWare_C_Series-2.1.4.178/driverlib/gcc/libdriver.a(sysctl.o)
                0x000000000000bbd0                SysCtlDelay
 .text.SysCtlMOSCConfigSet
                0x000000000000bbd8        0xc /home/kaviya/ti/TivaWare_C_Series-2.1.4.178/driverlib/gcc/libdriver.a(sysctl.o)
                0x000000000000bbd8                SysCtlMOSCConfigSet
 .text.SysCtlPIOSCCalibrate
                0x000000000000bbe4       0x48 /home/kaviya/ti/TivaWare_C_Series-2.1.4.178/driverlib/gcc/libdriver.a(sysctl.o)
                0x000000000000bbe4                SysCtlPIOSCCalibrate
 .text.SysCtlResetBehaviorSet
                0x000000000000bc2c        0xc /home/kaviya/ti/TivaWare_C_Series-2.1.4.178/driverlib/gcc/libdriver.a(sysctl.o)
                0x000000000000bc2c                SysCtlResetBehaviorSet
 .text.SysCtlResetBehaviorGet
                0x000000000000bc38        0xc /home/kaviya/ti/TivaWare_C_Series-2.1.4.178/driverlib/gcc/libdriver.a(sysctl.o)
                0x000000000000bc38                SysCtlResetBehaviorGet
 .text.SysCtlClockFreqSet
                0x000000000000bc44      0x248 /home/kaviya/ti/TivaWare_C_Series-2.1.4.178/driverlib/gcc/libdriver.a(sysctl.o)
                0x000000000000bc44                SysCtlClockFreqSet
 .text.SysCtlClockSet
                0x000000000000be8c      0x11c /home/kaviya/ti/TivaWare_C_Series-2.1.4.178/driverlib/gcc/libdriver.a(sysctl.o)
                0x000000000000be8c                SysCtlClockSet
 .text.SysCtlClockGet
                0x000000000000bfa8      0x12c /home/kaviya/ti/TivaWare_C_Series-2.1.4.178/driverlib/gcc/libdriver.a(sysctl.o)
                0x000000000000bfa8                SysCtlClockGet
 .text.SysCtlDeepSleepClockSet
                0x000000000000c0d4        0xc /home/kaviya/ti/TivaWare_C_Series-2.1.4.178/driverlib/gcc/libdriver.a(sysctl.o)
                0x000000000000c0d4                SysCtlDeepSleepClockSet
 .text.SysCtlDeepSleepClockConfigSet
                0x000000000000c0e0       0x60 /home/kaviya/ti/TivaWare_C_Series-2.1.4.178/driverlib/gcc/libdriver.a(sysctl.o)
                0x000000000000c0e0                SysCtlDeepSleepClockConfigSet
 .text.SysCtlPWMClockSet
                0x000000000000c140       0x14 /home/kaviya/ti/TivaWare_C_Series-2.1.4.178/driverlib/gcc/libdriver.a(sysctl.o)
                0x000000000000c140                SysCtlPWMClockSet
 .text.SysCtlPWMClockGet
                0x000000000000c154       0x18 /home/kaviya/ti/TivaWare_C_Series-2.1.4.178/driverlib/gcc/libdriver.a(sysctl.o)
                0x000000000000c154                SysCtlPWMClockGet
 .text.SysCtlGPIOAHBEnable
                0x000000000000c16c       0x18 /home/kaviya/ti/TivaWare_C_Series-2.1.4.178/driverlib/gcc/libdriver.a(sysctl.o)
                0x000000000000c16c                SysCtlGPIOAHBEnable
 .text.SysCtlGPIOAHBDisable
                0x000000000000c184       0x1c /home/kaviya/ti/TivaWare_C_Series-2.1.4.178/driverlib/gcc/libdriver.a(sysctl.o)
                0x000000000000c184                SysCtlGPIOAHBDisable
 .text.SysCtlUSBPLLEnable
                0x000000000000c1a0       0x10 /home/kaviya/ti/TivaWare_C_Series-2.1.4.178/driverlib/gcc/libdriver.a(sysctl.o)
                0x000000000000c1a0                SysCtlUSBPLLEnable
 .text.SysCtlUSBPLLDisable
                0x000000000000c1b0       0x10 /home/kaviya/ti/TivaWare_C_Series-2.1.4.178/driverlib/gcc/libdriver.a(sysctl.o)
                0x000000000000c1b0                SysCtlUSBPLLDisable
 .text.SysCtlVoltageEventConfig
                0x000000000000c1c0        0xc /home/kaviya/ti/TivaWare_C_Series-2.1.4.178/driverlib/gcc/libdriver.a(sysctl.o)
                0x000000000000c1c0                SysCtlVoltageEventConfig
 .text.SysCtlVoltageEventStatus
                0x000000000000c1cc        0xc /home/kaviya/ti/TivaWare_C_Series-2.1.4.178/driverlib/gcc/libdriver.a(sysctl.o)
                0x000000000000c1cc                SysCtlVoltageEventStatus
 .text.SysCtlVoltageEventClear
                0x000000000000c1d8       0x10 /home/kaviya/ti/TivaWare_C_Series-2.1.4.178/driverlib/gcc/libdriver.a(sysctl.o)
                0x000000000000c1d8                SysCtlVoltageEventClear
 .text.SysCtlVCOGet
                0x000000000000c1e8       0x78 /home/kaviya/ti/TivaWare_C_Series-2.1.4.178/driverlib/gcc/libdriver.a(sysctl.o)
                0x000000000000c1e8                SysCtlVCOGet
 .text.SysCtlNMIStatus
                0x000000000000c260        0xc /home/kaviya/ti/TivaWare_C_Series-2.1.4.178/driverlib/gcc/libdriver.a(sysctl.o)
                0x000000000000c260                SysCtlNMIStatus
 .text.SysCtlNMIClear
                0x000000000000c26c       0x10 /home/kaviya/ti/TivaWare_C_Series-2.1.4.178/driverlib/gcc/libdriver.a(sysctl.o)
                0x000000000000c26c                SysCtlNMIClear
 .text.SysCtlClockOutConfig
                0x000000000000c27c       0x10 /home/kaviya/ti/TivaWare_C_Series-2.1.4.178/driverlib/gcc/libdriver.a(sysctl.o)
                0x000000000000c27c                SysCtlClockOutConfig
 .text.SysCtlAltClkConfig
                0x000000000000c28c        0xc /home/kaviya/ti/TivaWare_C_Series-2.1.4.178/driverlib/gcc/libdriver.a(sysctl.o)
                0x000000000000c28c                SysCtlAltClkConfig
 .text._UARTIntNumberGet
                0x000000000000c298       0x44 /home/kaviya/ti/TivaWare_C_Series-2.1.4.178/driverlib/gcc/libdriver.a(uart.o)
 .text.UARTParityModeSet
                0x000000000000c2dc        0xc /home/kaviya/ti/TivaWare_C_Series-2.1.4.178/driverlib/gcc/libdriver.a(uart.o)
                0x000000000000c2dc                UARTParityModeSet
 .text.UARTParityModeGet
                0x000000000000c2e8        0x8 /home/kaviya/ti/TivaWare_C_Series-2.1.4.178/driverlib/gcc/libdriver.a(uart.o)
                0x000000000000c2e8                UARTParityModeGet
 .text.UARTFIFOLevelSet
                0x000000000000c2f0        0x6 /home/kaviya/ti/TivaWare_C_Series-2.1.4.178/driverlib/gcc/libdriver.a(uart.o)
                0x000000000000c2f0                UARTFIFOLevelSet
 .text.UARTFIFOLevelGet
                0x000000000000c2f6       0x10 /home/kaviya/ti/TivaWare_C_Series-2.1.4.178/driverlib/gcc/libdriver.a(uart.o)
                0x000000000000c2f6                UARTFIFOLevelGet
 .text.UARTConfigGetExpClk
                0x000000000000c306       0x28 /home/kaviya/ti/TivaWare_C_Series-2.1.4.178/driverlib/gcc/libdriver.a(uart.o)
                0x000000000000c306                UARTConfigGetExpClk
 .text.UARTEnable
                0x000000000000c32e       0x16 /home/kaviya/ti/TivaWare_C_Series-2.1.4.178/driverlib/gcc/libdriver.a(uart.o)
                0x000000000000c32e                UARTEnable
 .text.UARTDisable
                0x000000000000c344       0x1c /home/kaviya/ti/TivaWare_C_Series-2.1.4.178/driverlib/gcc/libdriver.a(uart.o)
                0x000000000000c344                UARTDisable
 .text.UARTConfigSetExpClk
                0x000000000000c360       0x48 /home/kaviya/ti/TivaWare_C_Series-2.1.4.178/driverlib/gcc/libdriver.a(uart.o)
                0x000000000000c360                UARTConfigSetExpClk
 .text.UARTFIFOEnable
                0x000000000000c3a8        0xa /home/kaviya/ti/TivaWare_C_Series-2.1.4.178/driverlib/gcc/libdriver.a(uart.o)
                0x000000000000c3a8                UARTFIFOEnable
 .text.UARTFIFODisable
                0x000000000000c3b2        0xa /home/kaviya/ti/TivaWare_C_Series-2.1.4.178/driverlib/gcc/libdriver.a(uart.o)
                0x000000000000c3b2                UARTFIFODisable
 .text.UARTEnableSIR
                0x000000000000c3bc       0x12 /home/kaviya/ti/TivaWare_C_Series-2.1.4.178/driverlib/gcc/libdriver.a(uart.o)
                0x000000000000c3bc                UARTEnableSIR
 .text.UARTDisableSIR
                0x000000000000c3ce        0xa /home/kaviya/ti/TivaWare_C_Series-2.1.4.178/driverlib/gcc/libdriver.a(uart.o)
                0x000000000000c3ce                UARTDisableSIR
 .text.UARTSmartCardEnable
                0x000000000000c3d8       0x16 /home/kaviya/ti/TivaWare_C_Series-2.1.4.178/driverlib/gcc/libdriver.a(uart.o)
                0x000000000000c3d8                UARTSmartCardEnable
 .text.UARTSmartCardDisable
                0x000000000000c3ee        0xa /home/kaviya/ti/TivaWare_C_Series-2.1.4.178/driverlib/gcc/libdriver.a(uart.o)
                0x000000000000c3ee                UARTSmartCardDisable
 .text.UARTModemControlSet
                0x000000000000c3f8        0xc /home/kaviya/ti/TivaWare_C_Series-2.1.4.178/driverlib/gcc/libdriver.a(uart.o)
                0x000000000000c3f8                UARTModemControlSet
 .text.UARTModemControlClear
                0x000000000000c404        0xe /home/kaviya/ti/TivaWare_C_Series-2.1.4.178/driverlib/gcc/libdriver.a(uart.o)
                0x000000000000c404                UARTModemControlClear
 .text.UARTModemControlGet
                0x000000000000c412        0x8 /home/kaviya/ti/TivaWare_C_Series-2.1.4.178/driverlib/gcc/libdriver.a(uart.o)
                0x000000000000c412                UARTModemControlGet
 .text.UARTModemStatusGet
                0x000000000000c41a        0xa /home/kaviya/ti/TivaWare_C_Series-2.1.4.178/driverlib/gcc/libdriver.a(uart.o)
                0x000000000000c41a                UARTModemStatusGet
 .text.UARTFlowControlSet
                0x000000000000c424        0xc /home/kaviya/ti/TivaWare_C_Series-2.1.4.178/driverlib/gcc/libdriver.a(uart.o)
                0x000000000000c424                UARTFlowControlSet
 .text.UARTFlowControlGet
                0x000000000000c430        0x8 /home/kaviya/ti/TivaWare_C_Series-2.1.4.178/driverlib/gcc/libdriver.a(uart.o)
                0x000000000000c430                UARTFlowControlGet
 .text.UARTTxIntModeSet
                0x000000000000c438        0xc /home/kaviya/ti/TivaWare_C_Series-2.1.4.178/driverlib/gcc/libdriver.a(uart.o)
                0x000000000000c438                UARTTxIntModeSet
 .text.UARTTxIntModeGet
                0x000000000000c444        0x8 /home/kaviya/ti/TivaWare_C_Series-2.1.4.178/driverlib/gcc/libdriver.a(uart.o)
                0x000000000000c444                UARTTxIntModeGet
 .text.UARTCharsAvail
                0x000000000000c44c        0xc /home/kaviya/ti/TivaWare_C_Series-2.1.4.178/driverlib/gcc/libdriver.a(uart.o)
                0x000000000000c44c                UARTCharsAvail
 .text.UARTSpaceAvail
                0x000000000000c458        0xc /home/kaviya/ti/TivaWare_C_Series-2.1.4.178/driverlib/gcc/libdriver.a(uart.o)
                0x000000000000c458                UARTSpaceAvail
 .text.UARTCharGetNonBlocking
                0x000000000000c464        0xe /home/kaviya/ti/TivaWare_C_Series-2.1.4.178/driverlib/gcc/libdriver.a(uart.o)
                0x000000000000c464                UARTCharGetNonBlocking
 .text.UARTCharGet
                0x000000000000c472        0xa /home/kaviya/ti/TivaWare_C_Series-2.1.4.178/driverlib/gcc/libdriver.a(uart.o)
                0x000000000000c472                UARTCharGet
 .text.UARTCharPutNonBlocking
                0x000000000000c47c       0x10 /home/kaviya/ti/TivaWare_C_Series-2.1.4.178/driverlib/gcc/libdriver.a(uart.o)
                0x000000000000c47c                UARTCharPutNonBlocking
 .text.UARTCharPut
                0x000000000000c48c        0xa /home/kaviya/ti/TivaWare_C_Series-2.1.4.178/driverlib/gcc/libdriver.a(uart.o)
                0x000000000000c48c                UARTCharPut
 .text.UARTBreakCtl
                0x000000000000c496       0x16 /home/kaviya/ti/TivaWare_C_Series-2.1.4.178/driverlib/gcc/libdriver.a(uart.o)
                0x000000000000c496                UARTBreakCtl
 .text.UARTBusy
                0x000000000000c4ac        0x8 /home/kaviya/ti/TivaWare_C_Series-2.1.4.178/driverlib/gcc/libdriver.a(uart.o)
                0x000000000000c4ac                UARTBusy
 .text.UARTIntRegister
                0x000000000000c4b4       0x1a /home/kaviya/ti/TivaWare_C_Series-2.1.4.178/driverlib/gcc/libdriver.a(uart.o)
                0x000000000000c4b4                UARTIntRegister
 .text.UARTIntUnregister
                0x000000000000c4ce       0x16 /home/kaviya/ti/TivaWare_C_Series-2.1.4.178/driverlib/gcc/libdriver.a(uart.o)
                0x000000000000c4ce                UARTIntUnregister
 .text.UARTIntEnable
                0x000000000000c4e4        0x8 /home/kaviya/ti/TivaWare_C_Series-2.1.4.178/driverlib/gcc/libdriver.a(uart.o)
                0x000000000000c4e4                UARTIntEnable
 .text.UARTIntDisable
                0x000000000000c4ec        0xa /home/kaviya/ti/TivaWare_C_Series-2.1.4.178/driverlib/gcc/libdriver.a(uart.o)
                0x000000000000c4ec                UARTIntDisable
 .text.UARTIntStatus
                0x000000000000c4f6        0xa /home/kaviya/ti/TivaWare_C_Series-2.1.4.178/driverlib/gcc/libdriver.a(uart.o)
                0x000000000000c4f6                UARTIntStatus
 .text.UARTIntClear
                0x000000000000c500        0x4 /home/kaviya/ti/TivaWare_C_Series-2.1.4.178/driverlib/gcc/libdriver.a(uart.o)
                0x000000000000c500                UARTIntClear
 .text.UARTDMAEnable
                0x000000000000c504        0x8 /home/kaviya/ti/TivaWare_C_Series-2.1.4.178/driverlib/gcc/libdriver.a(uart.o)
                0x000000000000c504                UARTDMAEnable
 .text.UARTDMADisable
                0x000000000000c50c        0xa /home/kaviya/ti/TivaWare_C_Series-2.1.4.178/driverlib/gcc/libdriver.a(uart.o)
                0x000000000000c50c                UARTDMADisable
 .text.UARTRxErrorGet
                0x000000000000c516        0x8 /home/kaviya/ti/TivaWare_C_Series-2.1.4.178/driverlib/gcc/libdriver.a(uart.o)
                0x000000000000c516                UARTRxErrorGet
 .text.UARTRxErrorClear
                0x000000000000c51e        0x6 /home/kaviya/ti/TivaWare_C_Series-2.1.4.178/driverlib/gcc/libdriver.a(uart.o)
                0x000000000000c51e                UARTRxErrorClear
 .text.UARTClockSourceSet
                0x000000000000c524        0x6 /home/kaviya/ti/TivaWare_C_Series-2.1.4.178/driverlib/gcc/libdriver.a(uart.o)
                0x000000000000c524                UARTClockSourceSet
 .text.UARTClockSourceGet
                0x000000000000c52a        0x6 /home/kaviya/ti/TivaWare_C_Series-2.1.4.178/driverlib/gcc/libdriver.a(uart.o)
                0x000000000000c52a                UARTClockSourceGet
 .text.UART9BitEnable
                0x000000000000c530        0xe /home/kaviya/ti/TivaWare_C_Series-2.1.4.178/driverlib/gcc/libdriver.a(uart.o)
                0x000000000000c530                UART9BitEnable
 .text.UART9BitDisable
                0x000000000000c53e        0xe /home/kaviya/ti/TivaWare_C_Series-2.1.4.178/driverlib/gcc/libdriver.a(uart.o)
                0x000000000000c53e                UART9BitDisable
 .text.UART9BitAddrSet
                0x000000000000c54c        0xa /home/kaviya/ti/TivaWare_C_Series-2.1.4.178/driverlib/gcc/libdriver.a(uart.o)
                0x000000000000c54c                UART9BitAddrSet
 .text.UART9BitAddrSend
                0x000000000000c556       0x2c /home/kaviya/ti/TivaWare_C_Series-2.1.4.178/driverlib/gcc/libdriver.a(uart.o)
                0x000000000000c556                UART9BitAddrSend
 .text.UARTLoopbackEnable
                0x000000000000c582        0xa /home/kaviya/ti/TivaWare_C_Series-2.1.4.178/driverlib/gcc/libdriver.a(uart.o)
                0x000000000000c582                UARTLoopbackEnable
 .text.CPUcpsid
                0x000000000000c58c        0x8 /home/kaviya/ti/TivaWare_C_Series-2.1.4.178/driverlib/gcc/libdriver.a(cpu.o)
                0x000000000000c58c                CPUcpsid
 .text.CPUprimask
                0x000000000000c594        0x6 /home/kaviya/ti/TivaWare_C_Series-2.1.4.178/driverlib/gcc/libdriver.a(cpu.o)
                0x000000000000c594                CPUprimask
 .text.CPUcpsie
                0x000000000000c59a        0x8 /home/kaviya/ti/TivaWare_C_Series-2.1.4.178/driverlib/gcc/libdriver.a(cpu.o)
                0x000000000000c59a                CPUcpsie
 .text.CPUwfi   0x000000000000c5a2        0x4 /home/kaviya/ti/TivaWare_C_Series-2.1.4.178/driverlib/gcc/libdriver.a(cpu.o)
                0x000000000000c5a2                CPUwfi
 .text.CPUbasepriSet
                0x000000000000c5a6        0x6 /home/kaviya/ti/TivaWare_C_Series-2.1.4.178/driverlib/gcc/libdriver.a(cpu.o)
                0x000000000000c5a6                CPUbasepriSet
 .text.CPUbasepriGet
                0x000000000000c5ac        0x6 /home/kaviya/ti/TivaWare_C_Series-2.1.4.178/driverlib/gcc/libdriver.a(cpu.o)
                0x000000000000c5ac                CPUbasepriGet
 *fill*         0x000000000000c5b2        0x2 
 .text.GrLibInit
                0x000000000000c5b4        0xc /home/kaviya/ti/TivaWare_C_Series-2.1.4.178/grlib/gcc/libgr.a(context.o)
                0x000000000000c5b4                GrLibInit
 .text.GrContextInit
                0x000000000000c5c0       0x6c /home/kaviya/ti/TivaWare_C_Series-2.1.4.178/grlib/gcc/libgr.a(context.o)
                0x000000000000c5c0                GrContextInit
 .text.GrContextClipRegionSet
                0x000000000000c62c       0x62 /home/kaviya/ti/TivaWare_C_Series-2.1.4.178/grlib/gcc/libgr.a(context.o)
                0x000000000000c62c                GrContextClipRegionSet
 .text.GrClipCodeGet
                0x000000000000c68e       0x36 /home/kaviya/ti/TivaWare_C_Series-2.1.4.178/grlib/gcc/libgr.a(line.o)
 .text.GrLineDrawH
                0x000000000000c6c4       0x46 /home/kaviya/ti/TivaWare_C_Series-2.1.4.178/grlib/gcc/libgr.a(line.o)
                0x000000000000c6c4                GrLineDrawH
 .text.GrLineDrawV
                0x000000000000c70a       0x46 /home/kaviya/ti/TivaWare_C_Series-2.1.4.178/grlib/gcc/libgr.a(line.o)
                0x000000000000c70a                GrLineDrawV
 .text.GrLineDraw
                0x000000000000c750      0x176 /home/kaviya/ti/TivaWare_C_Series-2.1.4.178/grlib/gcc/libgr.a(line.o)
                0x000000000000c750                GrLineDraw
 .text.GrRectDraw
                0x000000000000c8c6       0x66 /home/kaviya/ti/TivaWare_C_Series-2.1.4.178/grlib/gcc/libgr.a(rectangle.o)
                0x000000000000c8c6                GrRectDraw
 .text.GrRectFill
                0x000000000000c92c       0xb8 /home/kaviya/ti/TivaWare_C_Series-2.1.4.178/grlib/gcc/libgr.a(rectangle.o)
                0x000000000000c92c                GrRectFill
 .text.GrRectOverlapCheck
                0x000000000000c9e4       0x3a /home/kaviya/ti/TivaWare_C_Series-2.1.4.178/grlib/gcc/libgr.a(rectangle.o)
                0x000000000000c9e4                GrRectOverlapCheck
 .text.GrRectIntersectGet
                0x000000000000ca1e       0x70 /home/kaviya/ti/TivaWare_C_Series-2.1.4.178/grlib/gcc/libgr.a(rectangle.o)
                0x000000000000ca1e                GrRectIntersectGet
 .text.GrStringDraw
                0x000000000000ca8e       0x16 /home/kaviya/ti/TivaWare_C_Series-2.1.4.178/grlib/gcc/libgr.a(string.o)
                0x000000000000ca8e                GrStringDraw
 .text.GrStringNextCharGet
                0x000000000000caa4       0x28 /home/kaviya/ti/TivaWare_C_Series-2.1.4.178/grlib/gcc/libgr.a(string.o)
                0x000000000000caa4                GrStringNextCharGet
 .text.GrFontGlyphRender
                0x000000000000cacc      0x27c /home/kaviya/ti/TivaWare_C_Series-2.1.4.178/grlib/gcc/libgr.a(string.o)
                0x000000000000cacc                GrFontGlyphRender
 .text.GrFontInfoGet
                0x000000000000cd48       0x38 /home/kaviya/ti/TivaWare_C_Series-2.1.4.178/grlib/gcc/libgr.a(string.o)
                0x000000000000cd48                GrFontInfoGet
 .text.GrFontBaselineGet
                0x000000000000cd80       0x2c /home/kaviya/ti/TivaWare_C_Series-2.1.4.178/grlib/gcc/libgr.a(string.o)
                0x000000000000cd80                GrFontBaselineGet
 .text.GrFontHeightGet
                0x000000000000cdac       0x2c /home/kaviya/ti/TivaWare_C_Series-2.1.4.178/grlib/gcc/libgr.a(string.o)
                0x000000000000cdac                GrFontHeightGet
 .text.GrFontMaxWidthGet
                0x000000000000cdd8       0x2c /home/kaviya/ti/TivaWare_C_Series-2.1.4.178/grlib/gcc/libgr.a(string.o)
                0x000000000000cdd8                GrFontMaxWidthGet
 .text.GrFontGlyphDataGet
                0x000000000000ce04       0x90 /home/kaviya/ti/TivaWare_C_Series-2.1.4.178/grlib/gcc/libgr.a(string.o)
                0x000000000000ce04                GrFontGlyphDataGet
 .text.GrDefaultStringRenderer
                0x000000000000ce94       0xb8 /home/kaviya/ti/TivaWare_C_Series-2.1.4.178/grlib/gcc/libgr.a(string.o)
                0x000000000000ce94                GrDefaultStringRenderer
 .text.GrStringWidthGet
                0x000000000000cf4c       0x6a /home/kaviya/ti/TivaWare_C_Series-2.1.4.178/grlib/gcc/libgr.a(string.o)
                0x000000000000cf4c                GrStringWidthGet
 .text.GrFontCodepageGet
                0x000000000000cfb6       0x26 /home/kaviya/ti/TivaWare_C_Series-2.1.4.178/grlib/gcc/libgr.a(string.o)
                0x000000000000cfb6                GrFontCodepageGet
 .text.UpdateContextCharMapping
                0x000000000000cfdc       0x44 /home/kaviya/ti/TivaWare_C_Series-2.1.4.178/grlib/gcc/libgr.a(string.o)
 .text.GrFontNumBlocksGet
                0x000000000000d020       0x26 /home/kaviya/ti/TivaWare_C_Series-2.1.4.178/grlib/gcc/libgr.a(string.o)
                0x000000000000d020                GrFontNumBlocksGet
 .text.GrFontBlockCodepointsGet
                0x000000000000d046       0x5c /home/kaviya/ti/TivaWare_C_Series-2.1.4.178/grlib/gcc/libgr.a(string.o)
                0x000000000000d046                GrFontBlockCodepointsGet
 .text.GrCodepageMapTableSet
                0x000000000000d0a2        0xa /home/kaviya/ti/TivaWare_C_Series-2.1.4.178/grlib/gcc/libgr.a(string.o)
                0x000000000000d0a2                GrCodepageMapTableSet
 .text.GrStringCodepageSet
                0x000000000000d0ac        0x6 /home/kaviya/ti/TivaWare_C_Series-2.1.4.178/grlib/gcc/libgr.a(string.o)
                0x000000000000d0ac                GrStringCodepageSet
 .text.GrContextFontSet
                0x000000000000d0b2        0x6 /home/kaviya/ti/TivaWare_C_Series-2.1.4.178/grlib/gcc/libgr.a(string.o)
                0x000000000000d0b2                GrContextFontSet
 .text.GrStringTableSet
                0x000000000000d0b8       0x3c /home/kaviya/ti/TivaWare_C_Series-2.1.4.178/grlib/gcc/libgr.a(string.o)
                0x000000000000d0b8                GrStringTableSet
 .text.GrStringLanguageSet
                0x000000000000d0f4       0x38 /home/kaviya/ti/TivaWare_C_Series-2.1.4.178/grlib/gcc/libgr.a(string.o)
                0x000000000000d0f4                GrStringLanguageSet
 .text.GrStringGet
                0x000000000000d12c      0x258 /home/kaviya/ti/TivaWare_C_Series-2.1.4.178/grlib/gcc/libgr.a(string.o)
                0x000000000000d12c                GrStringGet
 .text.GrMapUTF16_Unicode
                0x000000000000d384       0x84 /home/kaviya/ti/TivaWare_C_Series-2.1.4.178/grlib/gcc/libgr.a(charmap.o)
 .text.GrMapISO8859_1_Unicode
                0x000000000000d408        0x8 /home/kaviya/ti/TivaWare_C_Series-2.1.4.178/grlib/gcc/libgr.a(charmap.o)
                0x000000000000d408                GrMapISO8859_1_Unicode
 .text.GrMapISO8859_2_Unicode
                0x000000000000d410       0x18 /home/kaviya/ti/TivaWare_C_Series-2.1.4.178/grlib/gcc/libgr.a(charmap.o)
                0x000000000000d410                GrMapISO8859_2_Unicode
 .text.GrMapISO8859_3_Unicode
                0x000000000000d428       0x18 /home/kaviya/ti/TivaWare_C_Series-2.1.4.178/grlib/gcc/libgr.a(charmap.o)
                0x000000000000d428                GrMapISO8859_3_Unicode
 .text.GrMapISO8859_4_Unicode
                0x000000000000d440       0x18 /home/kaviya/ti/TivaWare_C_Series-2.1.4.178/grlib/gcc/libgr.a(charmap.o)
                0x000000000000d440                GrMapISO8859_4_Unicode
 .text.GrMapISO8859_5_Unicode
                0x000000000000d458       0x10 /home/kaviya/ti/TivaWare_C_Series-2.1.4.178/grlib/gcc/libgr.a(charmap.o)
                0x000000000000d458                GrMapISO8859_5_Unicode
 .text.GrMapISO8859_6_Unicode
                0x000000000000d468       0x14 /home/kaviya/ti/TivaWare_C_Series-2.1.4.178/grlib/gcc/libgr.a(charmap.o)
                0x000000000000d468                GrMapISO8859_6_Unicode
 .text.GrMapISO8859_7_Unicode
                0x000000000000d47c       0x24 /home/kaviya/ti/TivaWare_C_Series-2.1.4.178/grlib/gcc/libgr.a(charmap.o)
                0x000000000000d47c                GrMapISO8859_7_Unicode
 .text.GrMapISO8859_8_Unicode
                0x000000000000d4a0       0x26 /home/kaviya/ti/TivaWare_C_Series-2.1.4.178/grlib/gcc/libgr.a(charmap.o)
                0x000000000000d4a0                GrMapISO8859_8_Unicode
 .text.GrMapISO8859_9_Unicode
                0x000000000000d4c6       0x46 /home/kaviya/ti/TivaWare_C_Series-2.1.4.178/grlib/gcc/libgr.a(charmap.o)
                0x000000000000d4c6                GrMapISO8859_9_Unicode
 .text.GrMapISO8859_10_Unicode
                0x000000000000d50c       0x18 /home/kaviya/ti/TivaWare_C_Series-2.1.4.178/grlib/gcc/libgr.a(charmap.o)
                0x000000000000d50c                GrMapISO8859_10_Unicode
 .text.GrMapISO8859_11_Unicode
                0x000000000000d524       0x10 /home/kaviya/ti/TivaWare_C_Series-2.1.4.178/grlib/gcc/libgr.a(charmap.o)
                0x000000000000d524                GrMapISO8859_11_Unicode
 .text.GrMapISO8859_13_Unicode
                0x000000000000d534       0x18 /home/kaviya/ti/TivaWare_C_Series-2.1.4.178/grlib/gcc/libgr.a(charmap.o)
                0x000000000000d534                GrMapISO8859_13_Unicode
 .text.GrMapISO8859_14_Unicode
                0x000000000000d54c       0x58 /home/kaviya/ti/TivaWare_C_Series-2.1.4.178/grlib/gcc/libgr.a(charmap.o)
                0x000000000000d54c                GrMapISO8859_14_Unicode
 .text.GrMapISO8859_15_Unicode
                0x000000000000d5a4       0x5a /home/kaviya/ti/TivaWare_C_Series-2.1.4.178/grlib/gcc/libgr.a(charmap.o)
                0x000000000000d5a4                GrMapISO8859_15_Unicode
 *fill*         0x000000000000d5fe        0x2 
 .text.GrMapISO8859_16_Unicode
                0x000000000000d600       0x18 /home/kaviya/ti/TivaWare_C_Series-2.1.4.178/grlib/gcc/libgr.a(charmap.o)
                0x000000000000d600                GrMapISO8859_16_Unicode
 .text.GrMapUTF8_Unicode
                0x000000000000d618       0x7c /home/kaviya/ti/TivaWare_C_Series-2.1.4.178/grlib/gcc/libgr.a(charmap.o)
                0x000000000000d618                GrMapUTF8_Unicode
 .text.GrMapUTF16LE_Unicode
                0x000000000000d694        0x6 /home/kaviya/ti/TivaWare_C_Series-2.1.4.178/grlib/gcc/libgr.a(charmap.o)
                0x000000000000d694                GrMapUTF16LE_Unicode
 .text.GrMapUTF16BE_Unicode
                0x000000000000d69a        0x6 /home/kaviya/ti/TivaWare_C_Series-2.1.4.178/grlib/gcc/libgr.a(charmap.o)
                0x000000000000d69a                GrMapUTF16BE_Unicode
 .text.GrMapUnicode_Unicode
                0x000000000000d6a0       0x22 /home/kaviya/ti/TivaWare_C_Series-2.1.4.178/grlib/gcc/libgr.a(charmap.o)
                0x000000000000d6a0                GrMapUnicode_Unicode
 *fill*         0x000000000000d6c2        0x2 
 .text.GrMapWIN1250_Unicode
                0x000000000000d6c4       0x18 /home/kaviya/ti/TivaWare_C_Series-2.1.4.178/grlib/gcc/libgr.a(charmap.o)
                0x000000000000d6c4                GrMapWIN1250_Unicode
 .text.GrMapWIN1251_Unicode
                0x000000000000d6dc       0x28 /home/kaviya/ti/TivaWare_C_Series-2.1.4.178/grlib/gcc/libgr.a(charmap.o)
                0x000000000000d6dc                GrMapWIN1251_Unicode
 .text.GrMapWIN1252_Unicode
                0x000000000000d704       0x1c /home/kaviya/ti/TivaWare_C_Series-2.1.4.178/grlib/gcc/libgr.a(charmap.o)
                0x000000000000d704                GrMapWIN1252_Unicode
 .text.GrMapWIN1253_Unicode
                0x000000000000d720       0x28 /home/kaviya/ti/TivaWare_C_Series-2.1.4.178/grlib/gcc/libgr.a(charmap.o)
                0x000000000000d720                GrMapWIN1253_Unicode
 .text.GrMapWIN1254_Unicode
                0x000000000000d748       0x24 /home/kaviya/ti/TivaWare_C_Series-2.1.4.178/grlib/gcc/libgr.a(charmap.o)
                0x000000000000d748                GrMapWIN1254_Unicode
                0x000000000000d76c                . = ALIGN (0x4)
 *(.ctors)
                0x000000000000d76c                . = ALIGN (0x4)
 *(.dtors)
                0x000000000000d76c                . = ALIGN (0x4)
                0x000000000000d76c                __init_array_start = .
 *(.init_array*)
 .init_array    0x000000000000d76c        0x4 /home/kaviya/ti/ccsv7/tools/compiler/gcc-arm-none-eabi-6-2017-q1-update/bin/../lib/gcc/arm-none-eabi/6.3.1/thumb/v7e-m/fpv4-sp/hard/crtbegin.o
 .init_array.00000
                0x000000000000d770        0x4 /home/kaviya/ti/ccsv7/tools/compiler/gcc-arm-none-eabi-6-2017-q1-update/bin/../lib/gcc/arm-none-eabi/6.3.1/../../../../arm-none-eabi/lib/thumb/v7e-m/fpv4-sp/hard/libc.a(lib_a-__call_atexit.o)
                0x000000000000d774                __init_array_end = .
 *(.init)
 .init          0x000000000000d774        0x4 /home/kaviya/ti/ccsv7/tools/compiler/gcc-arm-none-eabi-6-2017-q1-update/bin/../lib/gcc/arm-none-eabi/6.3.1/thumb/v7e-m/fpv4-sp/hard/crti.o
                0x000000000000d774                _init
 .init          0x000000000000d778        0x8 /home/kaviya/ti/ccsv7/tools/compiler/gcc-arm-none-eabi-6-2017-q1-update/bin/../lib/gcc/arm-none-eabi/6.3.1/thumb/v7e-m/fpv4-sp/hard/crtn.o
 *(.fini*)
 .fini          0x000000000000d780        0x4 /home/kaviya/ti/ccsv7/tools/compiler/gcc-arm-none-eabi-6-2017-q1-update/bin/../lib/gcc/arm-none-eabi/6.3.1/thumb/v7e-m/fpv4-sp/hard/crti.o
                0x000000000000d780                _fini
 .fini_array    0x000000000000d784        0x4 /home/kaviya/ti/ccsv7/tools/compiler/gcc-arm-none-eabi-6-2017-q1-update/bin/../lib/gcc/arm-none-eabi/6.3.1/thumb/v7e-m/fpv4-sp/hard/crtbegin.o
 .fini          0x000000000000d788        0x8 /home/kaviya/ti/ccsv7/tools/compiler/gcc-arm-none-eabi-6-2017-q1-update/bin/../lib/gcc/arm-none-eabi/6.3.1/thumb/v7e-m/fpv4-sp/hard/crtn.o
                [!provide]                        PROVIDE (__etext, .)
                [!provide]                        PROVIDE (_etext, .)
                [!provide]                        PROVIDE (etext, .)

.glue_7         0x000000000000d790        0x0
 .glue_7        0x000000000000d790        0x0 linker stubs

.glue_7t        0x000000000000d790        0x0
 .glue_7t       0x000000000000d790        0x0 linker stubs

.vfp11_veneer   0x000000000000d790        0x0
 .vfp11_veneer  0x000000000000d790        0x0 linker stubs

.v4_bx          0x000000000000d790        0x0
 .v4_bx         0x000000000000d790        0x0 linker stubs

.iplt           0x000000000000d790        0x0
 .iplt          0x000000000000d790        0x0 /home/kaviya/ti/ccsv7/tools/compiler/gcc-arm-none-eabi-6-2017-q1-update/bin/../lib/gcc/arm-none-eabi/6.3.1/thumb/v7e-m/fpv4-sp/hard/crtbegin.o

.rodata         0x000000000000d790     0x1920
 *(.rodata)
 .rodata        0x000000000000d790       0x26 ./LCD.o
 *fill*         0x000000000000d7b6        0x2 
 .rodata        0x000000000000d7b8      0x155 ./LCD_stairs.o
 *fill*         0x000000000000d90d        0x3 
 .rodata        0x000000000000d910       0x1e ./UART.o
 *fill*         0x000000000000d92e        0x2 
 .rodata        0x000000000000d930       0x1a ./ustdlib.o
 *(.rodata*)
 *fill*         0x000000000000d94a        0x2 
 .rodata.g_sKentec320x240x16_SSD2119
                0x000000000000d94c       0x28 ./Kentec320x240x16_ssd2119_spi.o
                0x000000000000d94c                g_sKentec320x240x16_SSD2119
 .rodata.g_pcHex
                0x000000000000d974        0x4 ./UART.o
 .rodata.g_pcHex
                0x000000000000d978        0x4 ./ustdlib.o
 .rodata.g_psDaysToMonth
                0x000000000000d97c       0x30 ./ustdlib.o
 .rodata.g_pfExponents
                0x000000000000d9ac       0x18 ./ustdlib.o
 .rodata._global_impure_ptr
                0x000000000000d9c4        0x4 /home/kaviya/ti/ccsv7/tools/compiler/gcc-arm-none-eabi-6-2017-q1-update/bin/../lib/gcc/arm-none-eabi/6.3.1/../../../../arm-none-eabi/lib/thumb/v7e-m/fpv4-sp/hard/libc.a(lib_a-impure.o)
                0x000000000000d9c4                _global_impure_ptr
 .rodata.__utoa.str1.4
                0x000000000000d9c8       0x25 /home/kaviya/ti/ccsv7/tools/compiler/gcc-arm-none-eabi-6-2017-q1-update/bin/../lib/gcc/arm-none-eabi/6.3.1/../../../../arm-none-eabi/lib/thumb/v7e-m/fpv4-sp/hard/libc.a(lib_a-utoa.o)
 *fill*         0x000000000000d9ed        0x3 
 .rodata._vfprintf_r.str1.4
                0x000000000000d9f0       0x42 /home/kaviya/ti/ccsv7/tools/compiler/gcc-arm-none-eabi-6-2017-q1-update/bin/../lib/gcc/arm-none-eabi/6.3.1/../../../../arm-none-eabi/lib/thumb/v7e-m/fpv4-sp/hard/libc.a(lib_a-vfprintf.o)
 *fill*         0x000000000000da32        0x2 
 .rodata.blanks.8366
                0x000000000000da34       0x10 /home/kaviya/ti/ccsv7/tools/compiler/gcc-arm-none-eabi-6-2017-q1-update/bin/../lib/gcc/arm-none-eabi/6.3.1/../../../../arm-none-eabi/lib/thumb/v7e-m/fpv4-sp/hard/libc.a(lib_a-vfprintf.o)
 .rodata.zeroes.8367
                0x000000000000da44       0x10 /home/kaviya/ti/ccsv7/tools/compiler/gcc-arm-none-eabi-6-2017-q1-update/bin/../lib/gcc/arm-none-eabi/6.3.1/../../../../arm-none-eabi/lib/thumb/v7e-m/fpv4-sp/hard/libc.a(lib_a-vfprintf.o)
 .rodata._dtoa_r.str1.4
                0x000000000000da54       0x10 /home/kaviya/ti/ccsv7/tools/compiler/gcc-arm-none-eabi-6-2017-q1-update/bin/../lib/gcc/arm-none-eabi/6.3.1/../../../../arm-none-eabi/lib/thumb/v7e-m/fpv4-sp/hard/libc.a(lib_a-dtoa.o)
                                         0x12 (size before relaxing)
 *fill*         0x000000000000da64        0x4 
 .rodata.__mprec_bigtens
                0x000000000000da68       0x28 /home/kaviya/ti/ccsv7/tools/compiler/gcc-arm-none-eabi-6-2017-q1-update/bin/../lib/gcc/arm-none-eabi/6.3.1/../../../../arm-none-eabi/lib/thumb/v7e-m/fpv4-sp/hard/libc.a(lib_a-mprec.o)
                0x000000000000da68                __mprec_bigtens
 .rodata.__mprec_tens
                0x000000000000da90       0xc8 /home/kaviya/ti/ccsv7/tools/compiler/gcc-arm-none-eabi-6-2017-q1-update/bin/../lib/gcc/arm-none-eabi/6.3.1/../../../../arm-none-eabi/lib/thumb/v7e-m/fpv4-sp/hard/libc.a(lib_a-mprec.o)
                0x000000000000da90                __mprec_tens
 .rodata.__mprec_tinytens
                0x000000000000db58       0x28 /home/kaviya/ti/ccsv7/tools/compiler/gcc-arm-none-eabi-6-2017-q1-update/bin/../lib/gcc/arm-none-eabi/6.3.1/../../../../arm-none-eabi/lib/thumb/v7e-m/fpv4-sp/hard/libc.a(lib_a-mprec.o)
                0x000000000000db58                __mprec_tinytens
 .rodata.p05.7183
                0x000000000000db80        0xc /home/kaviya/ti/ccsv7/tools/compiler/gcc-arm-none-eabi-6-2017-q1-update/bin/../lib/gcc/arm-none-eabi/6.3.1/../../../../arm-none-eabi/lib/thumb/v7e-m/fpv4-sp/hard/libc.a(lib_a-mprec.o)
 .rodata._vfiprintf_r.str1.4
                0x000000000000db8c       0x2f /home/kaviya/ti/ccsv7/tools/compiler/gcc-arm-none-eabi-6-2017-q1-update/bin/../lib/gcc/arm-none-eabi/6.3.1/../../../../arm-none-eabi/lib/thumb/v7e-m/fpv4-sp/hard/libc.a(lib_a-vfiprintf.o)
 .rodata.blanks.8345
                0x000000000000db8c       0x10 /home/kaviya/ti/ccsv7/tools/compiler/gcc-arm-none-eabi-6-2017-q1-update/bin/../lib/gcc/arm-none-eabi/6.3.1/../../../../arm-none-eabi/lib/thumb/v7e-m/fpv4-sp/hard/libc.a(lib_a-vfiprintf.o)
 .rodata.zeroes.8346
                0x000000000000db9c       0x10 /home/kaviya/ti/ccsv7/tools/compiler/gcc-arm-none-eabi-6-2017-q1-update/bin/../lib/gcc/arm-none-eabi/6.3.1/../../../../arm-none-eabi/lib/thumb/v7e-m/fpv4-sp/hard/libc.a(lib_a-vfiprintf.o)
 .rodata._setlocale_r.str1.4
                0x000000000000dbac        0xa /home/kaviya/ti/ccsv7/tools/compiler/gcc-arm-none-eabi-6-2017-q1-update/bin/../lib/gcc/arm-none-eabi/6.3.1/../../../../arm-none-eabi/lib/thumb/v7e-m/fpv4-sp/hard/libc.a(lib_a-locale.o)
                                          0xd (size before relaxing)
 *fill*         0x000000000000dbb6        0x2 
 .rodata.str1.4
                0x000000000000dbb8        0x2 /home/kaviya/ti/ccsv7/tools/compiler/gcc-arm-none-eabi-6-2017-q1-update/bin/../lib/gcc/arm-none-eabi/6.3.1/../../../../arm-none-eabi/lib/thumb/v7e-m/fpv4-sp/hard/libc.a(lib_a-locale.o)
 *fill*         0x000000000000dbba        0x2 
 .rodata._ctype_
                0x000000000000dbbc      0x101 /home/kaviya/ti/ccsv7/tools/compiler/gcc-arm-none-eabi-6-2017-q1-update/bin/../lib/gcc/arm-none-eabi/6.3.1/../../../../arm-none-eabi/lib/thumb/v7e-m/fpv4-sp/hard/libc.a(lib_a-ctype_.o)
                0x000000000000dbbc                _ctype_
 *fill*         0x000000000000dcbd        0x3 
 .rodata.initialise_monitor_handles.str1.4
                0x000000000000dcc0        0x4 /home/kaviya/ti/ccsv7/tools/compiler/gcc-arm-none-eabi-6-2017-q1-update/bin/../lib/gcc/arm-none-eabi/6.3.1/../../../../arm-none-eabi/lib/thumb/v7e-m/fpv4-sp/hard/librdimon.a(rdimon-syscalls.o)
 .rodata.g_ppui32GPIOIntMapSnowflake
                0x000000000000dcc4       0xd8 /home/kaviya/ti/TivaWare_C_Series-2.1.4.178/driverlib/gcc/libdriver.a(gpio.o)
 .rodata.g_pui32GPIOBaseAddrs
                0x000000000000dd9c       0x90 /home/kaviya/ti/TivaWare_C_Series-2.1.4.178/driverlib/gcc/libdriver.a(gpio.o)
 .rodata.g_ppui32GPIOIntMapBlizzard
                0x000000000000de2c       0xc0 /home/kaviya/ti/TivaWare_C_Series-2.1.4.178/driverlib/gcc/libdriver.a(gpio.o)
 .rodata.g_pui32Priority
                0x000000000000deec       0x20 /home/kaviya/ti/TivaWare_C_Series-2.1.4.178/driverlib/gcc/libdriver.a(interrupt.o)
 .rodata.g_pui32Dii16Regs
                0x000000000000df0c       0x14 /home/kaviya/ti/TivaWare_C_Series-2.1.4.178/driverlib/gcc/libdriver.a(interrupt.o)
 .rodata.g_pui32PendRegs
                0x000000000000df20       0x14 /home/kaviya/ti/TivaWare_C_Series-2.1.4.178/driverlib/gcc/libdriver.a(interrupt.o)
 .rodata.g_pui32Regs
                0x000000000000df34       0x9c /home/kaviya/ti/TivaWare_C_Series-2.1.4.178/driverlib/gcc/libdriver.a(interrupt.o)
 .rodata.g_pui32EnRegs
                0x000000000000dfd0       0x14 /home/kaviya/ti/TivaWare_C_Series-2.1.4.178/driverlib/gcc/libdriver.a(interrupt.o)
 .rodata.g_pui32UnpendRegs
                0x000000000000dfe4       0x14 /home/kaviya/ti/TivaWare_C_Series-2.1.4.178/driverlib/gcc/libdriver.a(interrupt.o)
 .rodata.g_ppui32SSIIntMap
                0x000000000000dff8       0x20 /home/kaviya/ti/TivaWare_C_Series-2.1.4.178/driverlib/gcc/libdriver.a(ssi.o)
 .rodata.g_ppui32SSIIntMapSnowflake
                0x000000000000e018       0x20 /home/kaviya/ti/TivaWare_C_Series-2.1.4.178/driverlib/gcc/libdriver.a(ssi.o)
 .rodata.g_pppui32XTALtoVCO
                0x000000000000e038      0x1b0 /home/kaviya/ti/TivaWare_C_Series-2.1.4.178/driverlib/gcc/libdriver.a(sysctl.o)
 .rodata.g_pui32VCOFrequencies
                0x000000000000e1e8        0x8 /home/kaviya/ti/TivaWare_C_Series-2.1.4.178/driverlib/gcc/libdriver.a(sysctl.o)
 .rodata.g_sXTALtoMEMTIM
                0x000000000000e1f0       0x30 /home/kaviya/ti/TivaWare_C_Series-2.1.4.178/driverlib/gcc/libdriver.a(sysctl.o)
 .rodata.g_pui32Xtals
                0x000000000000e220       0x6c /home/kaviya/ti/TivaWare_C_Series-2.1.4.178/driverlib/gcc/libdriver.a(sysctl.o)
 .rodata.g_ppui32UARTIntMap
                0x000000000000e28c       0x40 /home/kaviya/ti/TivaWare_C_Series-2.1.4.178/driverlib/gcc/libdriver.a(uart.o)
 .rodata.g_ppui32UARTIntMapSnowflake
                0x000000000000e2cc       0x40 /home/kaviya/ti/TivaWare_C_Series-2.1.4.178/driverlib/gcc/libdriver.a(uart.o)
 .rodata.g_psDefaultCodePointMapTable
                0x000000000000e30c       0x10 /home/kaviya/ti/TivaWare_C_Series-2.1.4.178/grlib/gcc/libgr.a(context.o)
                0x000000000000e30c                g_psDefaultCodePointMapTable
 .rodata.g_sFontCm12
                0x000000000000e31c       0xc8 /home/kaviya/ti/TivaWare_C_Series-2.1.4.178/grlib/gcc/libgr.a(fontcm12.o)
                0x000000000000e31c                g_sFontCm12
 .rodata.g_pui8Cm12Data
                0x000000000000e3e4      0x55f /home/kaviya/ti/TivaWare_C_Series-2.1.4.178/grlib/gcc/libgr.a(fontcm12.o)
 *fill*         0x000000000000e943        0x1 
 .rodata.g_pui16ISO8859_2_Unicode
                0x000000000000e944       0xbe /home/kaviya/ti/TivaWare_C_Series-2.1.4.178/grlib/gcc/libgr.a(charmap.o)
                0x000000000000e944                g_pui16ISO8859_2_Unicode
 .rodata.g_pui16ISO8859_13_Unicode
                0x000000000000ea02       0xbe /home/kaviya/ti/TivaWare_C_Series-2.1.4.178/grlib/gcc/libgr.a(charmap.o)
                0x000000000000ea02                g_pui16ISO8859_13_Unicode
 .rodata.g_pui16WIN1250_Unicode
                0x000000000000eac0      0x100 /home/kaviya/ti/TivaWare_C_Series-2.1.4.178/grlib/gcc/libgr.a(charmap.o)
                0x000000000000eac0                g_pui16WIN1250_Unicode
 .rodata.g_pui16ISO8859_7_Unicode
                0x000000000000ebc0       0x3a /home/kaviya/ti/TivaWare_C_Series-2.1.4.178/grlib/gcc/libgr.a(charmap.o)
                0x000000000000ebc0                g_pui16ISO8859_7_Unicode
 .rodata.g_pui16WIN1253_Unicode
                0x000000000000ebfa       0x80 /home/kaviya/ti/TivaWare_C_Series-2.1.4.178/grlib/gcc/libgr.a(charmap.o)
                0x000000000000ebfa                g_pui16WIN1253_Unicode
 .rodata.g_pui16WIN1252_Unicode
                0x000000000000ec7a       0x40 /home/kaviya/ti/TivaWare_C_Series-2.1.4.178/grlib/gcc/libgr.a(charmap.o)
                0x000000000000ec7a                g_pui16WIN1252_Unicode
 .rodata.g_pui16ISO8859_3_Unicode
                0x000000000000ecba       0xbe /home/kaviya/ti/TivaWare_C_Series-2.1.4.178/grlib/gcc/libgr.a(charmap.o)
                0x000000000000ecba                g_pui16ISO8859_3_Unicode
 .rodata.g_pui16ISO8859_16_Unicode
                0x000000000000ed78       0xbe /home/kaviya/ti/TivaWare_C_Series-2.1.4.178/grlib/gcc/libgr.a(charmap.o)
                0x000000000000ed78                g_pui16ISO8859_16_Unicode
 .rodata.g_pui16WIN1251_Unicode
                0x000000000000ee36       0x80 /home/kaviya/ti/TivaWare_C_Series-2.1.4.178/grlib/gcc/libgr.a(charmap.o)
                0x000000000000ee36                g_pui16WIN1251_Unicode
 .rodata.g_pui16ISO8859_14_Unicode
                0x000000000000eeb6       0x3e /home/kaviya/ti/TivaWare_C_Series-2.1.4.178/grlib/gcc/libgr.a(charmap.o)
                0x000000000000eeb6                g_pui16ISO8859_14_Unicode
 .rodata.g_pui16ISO8859_10_Unicode
                0x000000000000eef4       0xbe /home/kaviya/ti/TivaWare_C_Series-2.1.4.178/grlib/gcc/libgr.a(charmap.o)
                0x000000000000eef4                g_pui16ISO8859_10_Unicode
 .rodata.g_pui16WIN1254_Unicode
                0x000000000000efb2       0x40 /home/kaviya/ti/TivaWare_C_Series-2.1.4.178/grlib/gcc/libgr.a(charmap.o)
                0x000000000000efb2                g_pui16WIN1254_Unicode
 .rodata.g_pui16ISO8859_4_Unicode
                0x000000000000eff2       0xbe /home/kaviya/ti/TivaWare_C_Series-2.1.4.178/grlib/gcc/libgr.a(charmap.o)
                0x000000000000eff2                g_pui16ISO8859_4_Unicode

.eh_frame       0x000000000000f0b0        0x4
 .eh_frame      0x000000000000f0b0        0x0 /home/kaviya/ti/ccsv7/tools/compiler/gcc-arm-none-eabi-6-2017-q1-update/bin/../lib/gcc/arm-none-eabi/6.3.1/thumb/v7e-m/fpv4-sp/hard/crtbegin.o
 .eh_frame      0x000000000000f0b0        0x4 /home/kaviya/ti/ccsv7/tools/compiler/gcc-arm-none-eabi-6-2017-q1-update/bin/../lib/gcc/arm-none-eabi/6.3.1/thumb/v7e-m/fpv4-sp/hard/crtend.o

.data           0x0000000020000000      0xb14 load address 0x000000000000f0b4
                0x000000000000f0b4                __data_load__ = LOADADDR (.data)
                0x0000000020000000                __data_start__ = .
 *(.data)
 .data          0x0000000020000000        0x0 /home/kaviya/ti/ccsv7/tools/compiler/gcc-arm-none-eabi-6-2017-q1-update/bin/../lib/gcc/arm-none-eabi/6.3.1/thumb/v7e-m/fpv4-sp/hard/crti.o
 .data          0x0000000020000000        0x4 /home/kaviya/ti/ccsv7/tools/compiler/gcc-arm-none-eabi-6-2017-q1-update/bin/../lib/gcc/arm-none-eabi/6.3.1/thumb/v7e-m/fpv4-sp/hard/crtbegin.o
                0x0000000020000000                __dso_handle
 .data          0x0000000020000004        0x0 /home/kaviya/ti/ccsv7/tools/compiler/gcc-arm-none-eabi-6-2017-q1-update/bin/../lib/gcc/arm-none-eabi/6.3.1/../../../../arm-none-eabi/lib/thumb/v7e-m/fpv4-sp/hard/crt0.o
 .data          0x0000000020000004        0x0 ./Kentec320x240x16_ssd2119_spi.o
 .data          0x0000000020000004        0x0 ./LCD.o
 .data          0x0000000020000004        0x0 ./LCD_stairs.o
 .data          0x0000000020000004        0x0 ./UART.o
 .data          0x0000000020000004        0x0 ./tm4c123gh6pm_startup_ccs_gcc.o
 .data          0x0000000020000004        0x0 ./ustdlib.o
 .data          0x0000000020000004        0x0 /home/kaviya/ti/ccsv7/tools/compiler/gcc-arm-none-eabi-6-2017-q1-update/bin/../lib/gcc/arm-none-eabi/6.3.1/../../../../arm-none-eabi/lib/thumb/v7e-m/fpv4-sp/hard/libc.a(lib_a-exit.o)
 .data          0x0000000020000004        0x0 /home/kaviya/ti/ccsv7/tools/compiler/gcc-arm-none-eabi-6-2017-q1-update/bin/../lib/gcc/arm-none-eabi/6.3.1/../../../../arm-none-eabi/lib/thumb/v7e-m/fpv4-sp/hard/libc.a(lib_a-impure.o)
 .data          0x0000000020000004        0x0 /home/kaviya/ti/ccsv7/tools/compiler/gcc-arm-none-eabi-6-2017-q1-update/bin/../lib/gcc/arm-none-eabi/6.3.1/../../../../arm-none-eabi/lib/thumb/v7e-m/fpv4-sp/hard/libc.a(lib_a-init.o)
 .data          0x0000000020000004        0x0 /home/kaviya/ti/ccsv7/tools/compiler/gcc-arm-none-eabi-6-2017-q1-update/bin/../lib/gcc/arm-none-eabi/6.3.1/../../../../arm-none-eabi/lib/thumb/v7e-m/fpv4-sp/hard/libc.a(lib_a-itoa.o)
 .data          0x0000000020000004        0x0 /home/kaviya/ti/ccsv7/tools/compiler/gcc-arm-none-eabi-6-2017-q1-update/bin/../lib/gcc/arm-none-eabi/6.3.1/../../../../arm-none-eabi/lib/thumb/v7e-m/fpv4-sp/hard/libc.a(lib_a-memcpy.o)
 .data          0x0000000020000004        0x0 /home/kaviya/ti/ccsv7/tools/compiler/gcc-arm-none-eabi-6-2017-q1-update/bin/../lib/gcc/arm-none-eabi/6.3.1/../../../../arm-none-eabi/lib/thumb/v7e-m/fpv4-sp/hard/libc.a(lib_a-memset.o)
 .data          0x0000000020000004        0x0 /home/kaviya/ti/ccsv7/tools/compiler/gcc-arm-none-eabi-6-2017-q1-update/bin/../lib/gcc/arm-none-eabi/6.3.1/../../../../arm-none-eabi/lib/thumb/v7e-m/fpv4-sp/hard/libc.a(lib_a-printf.o)
 .data          0x0000000020000004        0x0 /home/kaviya/ti/ccsv7/tools/compiler/gcc-arm-none-eabi-6-2017-q1-update/bin/../lib/gcc/arm-none-eabi/6.3.1/../../../../arm-none-eabi/lib/thumb/v7e-m/fpv4-sp/hard/libc.a(lib_a-strlen.o)
 .data          0x0000000020000004        0x0 /home/kaviya/ti/ccsv7/tools/compiler/gcc-arm-none-eabi-6-2017-q1-update/bin/../lib/gcc/arm-none-eabi/6.3.1/../../../../arm-none-eabi/lib/thumb/v7e-m/fpv4-sp/hard/libc.a(lib_a-utoa.o)
 .data          0x0000000020000004        0x0 /home/kaviya/ti/ccsv7/tools/compiler/gcc-arm-none-eabi-6-2017-q1-update/bin/../lib/gcc/arm-none-eabi/6.3.1/../../../../arm-none-eabi/lib/thumb/v7e-m/fpv4-sp/hard/libc.a(lib_a-vfprintf.o)
 .data          0x0000000020000004        0x0 /home/kaviya/ti/ccsv7/tools/compiler/gcc-arm-none-eabi-6-2017-q1-update/bin/../lib/gcc/arm-none-eabi/6.3.1/../../../../arm-none-eabi/lib/thumb/v7e-m/fpv4-sp/hard/libc.a(lib_a-wsetup.o)
 .data          0x0000000020000004        0x0 /home/kaviya/ti/ccsv7/tools/compiler/gcc-arm-none-eabi-6-2017-q1-update/bin/../lib/gcc/arm-none-eabi/6.3.1/../../../../arm-none-eabi/lib/thumb/v7e-m/fpv4-sp/hard/libc.a(lib_a-__call_atexit.o)
 .data          0x0000000020000004        0x0 /home/kaviya/ti/ccsv7/tools/compiler/gcc-arm-none-eabi-6-2017-q1-update/bin/../lib/gcc/arm-none-eabi/6.3.1/../../../../arm-none-eabi/lib/thumb/v7e-m/fpv4-sp/hard/libc.a(lib_a-atexit.o)
 .data          0x0000000020000004        0x0 /home/kaviya/ti/ccsv7/tools/compiler/gcc-arm-none-eabi-6-2017-q1-update/bin/../lib/gcc/arm-none-eabi/6.3.1/../../../../arm-none-eabi/lib/thumb/v7e-m/fpv4-sp/hard/libc.a(lib_a-dtoa.o)
 .data          0x0000000020000004        0x0 /home/kaviya/ti/ccsv7/tools/compiler/gcc-arm-none-eabi-6-2017-q1-update/bin/../lib/gcc/arm-none-eabi/6.3.1/../../../../arm-none-eabi/lib/thumb/v7e-m/fpv4-sp/hard/libc.a(lib_a-fflush.o)
 .data          0x0000000020000004        0x0 /home/kaviya/ti/ccsv7/tools/compiler/gcc-arm-none-eabi-6-2017-q1-update/bin/../lib/gcc/arm-none-eabi/6.3.1/../../../../arm-none-eabi/lib/thumb/v7e-m/fpv4-sp/hard/libc.a(lib_a-findfp.o)
 .data          0x0000000020000004        0x0 /home/kaviya/ti/ccsv7/tools/compiler/gcc-arm-none-eabi-6-2017-q1-update/bin/../lib/gcc/arm-none-eabi/6.3.1/../../../../arm-none-eabi/lib/thumb/v7e-m/fpv4-sp/hard/libc.a(lib_a-fini.o)
 .data          0x0000000020000004        0x0 /home/kaviya/ti/ccsv7/tools/compiler/gcc-arm-none-eabi-6-2017-q1-update/bin/../lib/gcc/arm-none-eabi/6.3.1/../../../../arm-none-eabi/lib/thumb/v7e-m/fpv4-sp/hard/libc.a(lib_a-freer.o)
 .data          0x0000000020000004        0x0 /home/kaviya/ti/ccsv7/tools/compiler/gcc-arm-none-eabi-6-2017-q1-update/bin/../lib/gcc/arm-none-eabi/6.3.1/../../../../arm-none-eabi/lib/thumb/v7e-m/fpv4-sp/hard/libc.a(lib_a-fwalk.o)
 .data          0x0000000020000004        0x0 /home/kaviya/ti/ccsv7/tools/compiler/gcc-arm-none-eabi-6-2017-q1-update/bin/../lib/gcc/arm-none-eabi/6.3.1/../../../../arm-none-eabi/lib/thumb/v7e-m/fpv4-sp/hard/libc.a(lib_a-localeconv.o)
 .data          0x0000000020000004        0x0 /home/kaviya/ti/ccsv7/tools/compiler/gcc-arm-none-eabi-6-2017-q1-update/bin/../lib/gcc/arm-none-eabi/6.3.1/../../../../arm-none-eabi/lib/thumb/v7e-m/fpv4-sp/hard/libc.a(lib_a-lock.o)
 .data          0x0000000020000004        0x0 /home/kaviya/ti/ccsv7/tools/compiler/gcc-arm-none-eabi-6-2017-q1-update/bin/../lib/gcc/arm-none-eabi/6.3.1/../../../../arm-none-eabi/lib/thumb/v7e-m/fpv4-sp/hard/libc.a(lib_a-makebuf.o)
 .data          0x0000000020000004        0x0 /home/kaviya/ti/ccsv7/tools/compiler/gcc-arm-none-eabi-6-2017-q1-update/bin/../lib/gcc/arm-none-eabi/6.3.1/../../../../arm-none-eabi/lib/thumb/v7e-m/fpv4-sp/hard/libc.a(lib_a-mallocr.o)
 .data          0x0000000020000004        0x0 /home/kaviya/ti/ccsv7/tools/compiler/gcc-arm-none-eabi-6-2017-q1-update/bin/../lib/gcc/arm-none-eabi/6.3.1/../../../../arm-none-eabi/lib/thumb/v7e-m/fpv4-sp/hard/libc.a(lib_a-memchr.o)
 .data          0x0000000020000004        0x0 /home/kaviya/ti/ccsv7/tools/compiler/gcc-arm-none-eabi-6-2017-q1-update/bin/../lib/gcc/arm-none-eabi/6.3.1/../../../../arm-none-eabi/lib/thumb/v7e-m/fpv4-sp/hard/libc.a(lib_a-mlock.o)
 .data          0x0000000020000004        0x0 /home/kaviya/ti/ccsv7/tools/compiler/gcc-arm-none-eabi-6-2017-q1-update/bin/../lib/gcc/arm-none-eabi/6.3.1/../../../../arm-none-eabi/lib/thumb/v7e-m/fpv4-sp/hard/libc.a(lib_a-mprec.o)
 .data          0x0000000020000004        0x0 /home/kaviya/ti/ccsv7/tools/compiler/gcc-arm-none-eabi-6-2017-q1-update/bin/../lib/gcc/arm-none-eabi/6.3.1/../../../../arm-none-eabi/lib/thumb/v7e-m/fpv4-sp/hard/libc.a(lib_a-sbrkr.o)
 .data          0x0000000020000004        0x0 /home/kaviya/ti/ccsv7/tools/compiler/gcc-arm-none-eabi-6-2017-q1-update/bin/../lib/gcc/arm-none-eabi/6.3.1/../../../../arm-none-eabi/lib/thumb/v7e-m/fpv4-sp/hard/libc.a(lib_a-stdio.o)
 .data          0x0000000020000004        0x0 /home/kaviya/ti/ccsv7/tools/compiler/gcc-arm-none-eabi-6-2017-q1-update/bin/../lib/gcc/arm-none-eabi/6.3.1/../../../../arm-none-eabi/lib/thumb/v7e-m/fpv4-sp/hard/libc.a(lib_a-vfiprintf.o)
 .data          0x0000000020000004        0x0 /home/kaviya/ti/ccsv7/tools/compiler/gcc-arm-none-eabi-6-2017-q1-update/bin/../lib/gcc/arm-none-eabi/6.3.1/../../../../arm-none-eabi/lib/thumb/v7e-m/fpv4-sp/hard/libc.a(lib_a-writer.o)
 .data          0x0000000020000004        0x0 /home/kaviya/ti/ccsv7/tools/compiler/gcc-arm-none-eabi-6-2017-q1-update/bin/../lib/gcc/arm-none-eabi/6.3.1/../../../../arm-none-eabi/lib/thumb/v7e-m/fpv4-sp/hard/libc.a(lib_a-__atexit.o)
 .data          0x0000000020000004        0x0 /home/kaviya/ti/ccsv7/tools/compiler/gcc-arm-none-eabi-6-2017-q1-update/bin/../lib/gcc/arm-none-eabi/6.3.1/../../../../arm-none-eabi/lib/thumb/v7e-m/fpv4-sp/hard/libc.a(lib_a-callocr.o)
 .data          0x0000000020000004        0x0 /home/kaviya/ti/ccsv7/tools/compiler/gcc-arm-none-eabi-6-2017-q1-update/bin/../lib/gcc/arm-none-eabi/6.3.1/../../../../arm-none-eabi/lib/thumb/v7e-m/fpv4-sp/hard/libc.a(lib_a-closer.o)
 .data          0x0000000020000004        0x0 /home/kaviya/ti/ccsv7/tools/compiler/gcc-arm-none-eabi-6-2017-q1-update/bin/../lib/gcc/arm-none-eabi/6.3.1/../../../../arm-none-eabi/lib/thumb/v7e-m/fpv4-sp/hard/libc.a(lib_a-fclose.o)
 .data          0x0000000020000004        0x0 /home/kaviya/ti/ccsv7/tools/compiler/gcc-arm-none-eabi-6-2017-q1-update/bin/../lib/gcc/arm-none-eabi/6.3.1/../../../../arm-none-eabi/lib/thumb/v7e-m/fpv4-sp/hard/libc.a(lib_a-fputwc.o)
 .data          0x0000000020000004        0x0 /home/kaviya/ti/ccsv7/tools/compiler/gcc-arm-none-eabi-6-2017-q1-update/bin/../lib/gcc/arm-none-eabi/6.3.1/../../../../arm-none-eabi/lib/thumb/v7e-m/fpv4-sp/hard/libc.a(lib_a-fstatr.o)
 .data          0x0000000020000004        0x0 /home/kaviya/ti/ccsv7/tools/compiler/gcc-arm-none-eabi-6-2017-q1-update/bin/../lib/gcc/arm-none-eabi/6.3.1/../../../../arm-none-eabi/lib/thumb/v7e-m/fpv4-sp/hard/libc.a(lib_a-fvwrite.o)
 .data          0x0000000020000004        0x0 /home/kaviya/ti/ccsv7/tools/compiler/gcc-arm-none-eabi-6-2017-q1-update/bin/../lib/gcc/arm-none-eabi/6.3.1/../../../../arm-none-eabi/lib/thumb/v7e-m/fpv4-sp/hard/libc.a(lib_a-isattyr.o)
 .data          0x0000000020000004        0x0 /home/kaviya/ti/ccsv7/tools/compiler/gcc-arm-none-eabi-6-2017-q1-update/bin/../lib/gcc/arm-none-eabi/6.3.1/../../../../arm-none-eabi/lib/thumb/v7e-m/fpv4-sp/hard/libc.a(lib_a-locale.o)
 .data          0x0000000020000004        0x0 /home/kaviya/ti/ccsv7/tools/compiler/gcc-arm-none-eabi-6-2017-q1-update/bin/../lib/gcc/arm-none-eabi/6.3.1/../../../../arm-none-eabi/lib/thumb/v7e-m/fpv4-sp/hard/libc.a(lib_a-lseekr.o)
 .data          0x0000000020000004        0x0 /home/kaviya/ti/ccsv7/tools/compiler/gcc-arm-none-eabi-6-2017-q1-update/bin/../lib/gcc/arm-none-eabi/6.3.1/../../../../arm-none-eabi/lib/thumb/v7e-m/fpv4-sp/hard/libc.a(lib_a-mbtowc_r.o)
 .data          0x0000000020000004        0x0 /home/kaviya/ti/ccsv7/tools/compiler/gcc-arm-none-eabi-6-2017-q1-update/bin/../lib/gcc/arm-none-eabi/6.3.1/../../../../arm-none-eabi/lib/thumb/v7e-m/fpv4-sp/hard/libc.a(lib_a-memmove.o)
 .data          0x0000000020000004        0x0 /home/kaviya/ti/ccsv7/tools/compiler/gcc-arm-none-eabi-6-2017-q1-update/bin/../lib/gcc/arm-none-eabi/6.3.1/../../../../arm-none-eabi/lib/thumb/v7e-m/fpv4-sp/hard/libc.a(lib_a-readr.o)
 .data          0x0000000020000004        0x0 /home/kaviya/ti/ccsv7/tools/compiler/gcc-arm-none-eabi-6-2017-q1-update/bin/../lib/gcc/arm-none-eabi/6.3.1/../../../../arm-none-eabi/lib/thumb/v7e-m/fpv4-sp/hard/libc.a(lib_a-reallocr.o)
 .data          0x0000000020000004        0x0 /home/kaviya/ti/ccsv7/tools/compiler/gcc-arm-none-eabi-6-2017-q1-update/bin/../lib/gcc/arm-none-eabi/6.3.1/../../../../arm-none-eabi/lib/thumb/v7e-m/fpv4-sp/hard/libc.a(lib_a-reent.o)
 .data          0x0000000020000004        0x0 /home/kaviya/ti/ccsv7/tools/compiler/gcc-arm-none-eabi-6-2017-q1-update/bin/../lib/gcc/arm-none-eabi/6.3.1/../../../../arm-none-eabi/lib/thumb/v7e-m/fpv4-sp/hard/libc.a(lib_a-strcmp.o)
 .data          0x0000000020000004        0x0 /home/kaviya/ti/ccsv7/tools/compiler/gcc-arm-none-eabi-6-2017-q1-update/bin/../lib/gcc/arm-none-eabi/6.3.1/../../../../arm-none-eabi/lib/thumb/v7e-m/fpv4-sp/hard/libc.a(lib_a-wbuf.o)
 .data          0x0000000020000004        0x0 /home/kaviya/ti/ccsv7/tools/compiler/gcc-arm-none-eabi-6-2017-q1-update/bin/../lib/gcc/arm-none-eabi/6.3.1/../../../../arm-none-eabi/lib/thumb/v7e-m/fpv4-sp/hard/libc.a(lib_a-wcrtomb.o)
 .data          0x0000000020000004        0x0 /home/kaviya/ti/ccsv7/tools/compiler/gcc-arm-none-eabi-6-2017-q1-update/bin/../lib/gcc/arm-none-eabi/6.3.1/../../../../arm-none-eabi/lib/thumb/v7e-m/fpv4-sp/hard/libc.a(lib_a-wctomb_r.o)
 .data          0x0000000020000004        0x0 /home/kaviya/ti/ccsv7/tools/compiler/gcc-arm-none-eabi-6-2017-q1-update/bin/../lib/gcc/arm-none-eabi/6.3.1/../../../../arm-none-eabi/lib/thumb/v7e-m/fpv4-sp/hard/libc.a(lib_a-ctype_.o)
 .data          0x0000000020000004        0x0 /home/kaviya/ti/ccsv7/tools/compiler/gcc-arm-none-eabi-6-2017-q1-update/bin/../lib/gcc/arm-none-eabi/6.3.1/../../../../arm-none-eabi/lib/thumb/v7e-m/fpv4-sp/hard/librdimon.a(rdimon-syscalls.o)
 .data          0x0000000020000004        0x0 /home/kaviya/ti/ccsv7/tools/compiler/gcc-arm-none-eabi-6-2017-q1-update/bin/../lib/gcc/arm-none-eabi/6.3.1/../../../../arm-none-eabi/lib/thumb/v7e-m/fpv4-sp/hard/librdimon.a(rdimon-_exit.o)
 .data          0x0000000020000004        0x0 /home/kaviya/ti/ccsv7/tools/compiler/gcc-arm-none-eabi-6-2017-q1-update/bin/../lib/gcc/arm-none-eabi/6.3.1/../../../../arm-none-eabi/lib/thumb/v7e-m/fpv4-sp/hard/librdimon.a(rdimon-_kill.o)
 .data          0x0000000020000004        0x0 /home/kaviya/ti/ccsv7/tools/compiler/gcc-arm-none-eabi-6-2017-q1-update/bin/../lib/gcc/arm-none-eabi/6.3.1/../../../../arm-none-eabi/lib/thumb/v7e-m/fpv4-sp/hard/libc.a(lib_a-errno.o)
 .data          0x0000000020000004        0x0 /home/kaviya/ti/TivaWare_C_Series-2.1.4.178/driverlib/gcc/libdriver.a(fpu.o)
 .data          0x0000000020000004        0x0 /home/kaviya/ti/TivaWare_C_Series-2.1.4.178/driverlib/gcc/libdriver.a(gpio.o)
 .data          0x0000000020000004        0x0 /home/kaviya/ti/TivaWare_C_Series-2.1.4.178/driverlib/gcc/libdriver.a(interrupt.o)
 .data          0x0000000020000004        0x0 /home/kaviya/ti/TivaWare_C_Series-2.1.4.178/driverlib/gcc/libdriver.a(ssi.o)
 .data          0x0000000020000004        0x0 /home/kaviya/ti/TivaWare_C_Series-2.1.4.178/driverlib/gcc/libdriver.a(sysctl.o)
 .data          0x0000000020000004        0x0 /home/kaviya/ti/TivaWare_C_Series-2.1.4.178/driverlib/gcc/libdriver.a(uart.o)
 .data          0x0000000020000004        0x0 /home/kaviya/ti/TivaWare_C_Series-2.1.4.178/driverlib/gcc/libdriver.a(cpu.o)
 .data          0x0000000020000004        0x0 /home/kaviya/ti/TivaWare_C_Series-2.1.4.178/grlib/gcc/libgr.a(context.o)
 .data          0x0000000020000004        0x0 /home/kaviya/ti/TivaWare_C_Series-2.1.4.178/grlib/gcc/libgr.a(fontcm12.o)
 .data          0x0000000020000004        0x0 /home/kaviya/ti/TivaWare_C_Series-2.1.4.178/grlib/gcc/libgr.a(line.o)
 .data          0x0000000020000004        0x0 /home/kaviya/ti/TivaWare_C_Series-2.1.4.178/grlib/gcc/libgr.a(rectangle.o)
 .data          0x0000000020000004        0x0 /home/kaviya/ti/TivaWare_C_Series-2.1.4.178/grlib/gcc/libgr.a(string.o)
 .data          0x0000000020000004        0x0 /home/kaviya/ti/TivaWare_C_Series-2.1.4.178/grlib/gcc/libgr.a(charmap.o)
 .data          0x0000000020000004        0x0 /home/kaviya/ti/ccsv7/tools/compiler/gcc-arm-none-eabi-6-2017-q1-update/bin/../lib/gcc/arm-none-eabi/6.3.1/thumb/v7e-m/fpv4-sp/hard/libgcc.a(_arm_addsubdf3.o)
 .data          0x0000000020000004        0x0 /home/kaviya/ti/ccsv7/tools/compiler/gcc-arm-none-eabi-6-2017-q1-update/bin/../lib/gcc/arm-none-eabi/6.3.1/thumb/v7e-m/fpv4-sp/hard/libgcc.a(_arm_muldivdf3.o)
 .data          0x0000000020000004        0x0 /home/kaviya/ti/ccsv7/tools/compiler/gcc-arm-none-eabi-6-2017-q1-update/bin/../lib/gcc/arm-none-eabi/6.3.1/thumb/v7e-m/fpv4-sp/hard/libgcc.a(_arm_cmpdf2.o)
 .data          0x0000000020000004        0x0 /home/kaviya/ti/ccsv7/tools/compiler/gcc-arm-none-eabi-6-2017-q1-update/bin/../lib/gcc/arm-none-eabi/6.3.1/thumb/v7e-m/fpv4-sp/hard/libgcc.a(_arm_unorddf2.o)
 .data          0x0000000020000004        0x0 /home/kaviya/ti/ccsv7/tools/compiler/gcc-arm-none-eabi-6-2017-q1-update/bin/../lib/gcc/arm-none-eabi/6.3.1/thumb/v7e-m/fpv4-sp/hard/libgcc.a(_arm_fixdfsi.o)
 .data          0x0000000020000004        0x0 /home/kaviya/ti/ccsv7/tools/compiler/gcc-arm-none-eabi-6-2017-q1-update/bin/../lib/gcc/arm-none-eabi/6.3.1/thumb/v7e-m/fpv4-sp/hard/libgcc.a(_arm_truncdfsf2.o)
 .data          0x0000000020000004        0x0 /home/kaviya/ti/ccsv7/tools/compiler/gcc-arm-none-eabi-6-2017-q1-update/bin/../lib/gcc/arm-none-eabi/6.3.1/thumb/v7e-m/fpv4-sp/hard/libgcc.a(_aeabi_uldivmod.o)
 .data          0x0000000020000004        0x0 /home/kaviya/ti/ccsv7/tools/compiler/gcc-arm-none-eabi-6-2017-q1-update/bin/../lib/gcc/arm-none-eabi/6.3.1/thumb/v7e-m/fpv4-sp/hard/libgcc.a(_udivmoddi4.o)
 .data          0x0000000020000004        0x0 /home/kaviya/ti/ccsv7/tools/compiler/gcc-arm-none-eabi-6-2017-q1-update/bin/../lib/gcc/arm-none-eabi/6.3.1/thumb/v7e-m/fpv4-sp/hard/libgcc.a(_dvmd_tls.o)
 .data          0x0000000020000004        0x0 /home/kaviya/ti/ccsv7/tools/compiler/gcc-arm-none-eabi-6-2017-q1-update/bin/../lib/gcc/arm-none-eabi/6.3.1/thumb/v7e-m/fpv4-sp/hard/crtend.o
 .data          0x0000000020000004        0x0 /home/kaviya/ti/ccsv7/tools/compiler/gcc-arm-none-eabi-6-2017-q1-update/bin/../lib/gcc/arm-none-eabi/6.3.1/thumb/v7e-m/fpv4-sp/hard/crtn.o
 *(.data*)
 .data.data_ch  0x0000000020000004       0xa0 ./LCD.o
                0x0000000020000004                data_ch
 .data.data_ch_prev
                0x00000000200000a4       0xa0 ./LCD.o
                0x00000000200000a4                data_ch_prev
 .data.Y_max    0x0000000020000144        0x4 ./LCD.o
                0x0000000020000144                Y_max
 .data.Y_min    0x0000000020000148        0x4 ./LCD.o
                0x0000000020000148                Y_min
 .data.print_left
                0x000000002000014c        0x4 ./LCD.o
                0x000000002000014c                print_left
 .data.print_right
                0x0000000020000150        0x4 ./LCD.o
                0x0000000020000150                print_right
 .data.time_interval
                0x0000000020000154        0x4 ./LCD.o
                0x0000000020000154                time_interval
 .data.temp_set
                0x0000000020000158        0x4 ./UART.o
                0x0000000020000158                temp_set
 .data.g_iRandomSeed
                0x000000002000015c        0x4 ./ustdlib.o
 .data._impure_ptr
                0x0000000020000160        0x4 /home/kaviya/ti/ccsv7/tools/compiler/gcc-arm-none-eabi-6-2017-q1-update/bin/../lib/gcc/arm-none-eabi/6.3.1/../../../../arm-none-eabi/lib/thumb/v7e-m/fpv4-sp/hard/libc.a(lib_a-impure.o)
                0x0000000020000160                _impure_ptr
 *fill*         0x0000000020000164        0x4 
 .data.impure_data
                0x0000000020000168      0x428 /home/kaviya/ti/ccsv7/tools/compiler/gcc-arm-none-eabi-6-2017-q1-update/bin/../lib/gcc/arm-none-eabi/6.3.1/../../../../arm-none-eabi/lib/thumb/v7e-m/fpv4-sp/hard/libc.a(lib_a-impure.o)
 .data.__atexit_recursive_mutex
                0x0000000020000590        0x4 /home/kaviya/ti/ccsv7/tools/compiler/gcc-arm-none-eabi-6-2017-q1-update/bin/../lib/gcc/arm-none-eabi/6.3.1/../../../../arm-none-eabi/lib/thumb/v7e-m/fpv4-sp/hard/libc.a(lib_a-__call_atexit.o)
                0x0000000020000590                __atexit_recursive_mutex
 .data.__malloc_av_
                0x0000000020000594      0x408 /home/kaviya/ti/ccsv7/tools/compiler/gcc-arm-none-eabi-6-2017-q1-update/bin/../lib/gcc/arm-none-eabi/6.3.1/../../../../arm-none-eabi/lib/thumb/v7e-m/fpv4-sp/hard/libc.a(lib_a-mallocr.o)
                0x0000000020000594                __malloc_av_
 .data.__malloc_sbrk_base
                0x000000002000099c        0x4 /home/kaviya/ti/ccsv7/tools/compiler/gcc-arm-none-eabi-6-2017-q1-update/bin/../lib/gcc/arm-none-eabi/6.3.1/../../../../arm-none-eabi/lib/thumb/v7e-m/fpv4-sp/hard/libc.a(lib_a-mallocr.o)
                0x000000002000099c                __malloc_sbrk_base
 .data.__malloc_trim_threshold
                0x00000000200009a0        0x4 /home/kaviya/ti/ccsv7/tools/compiler/gcc-arm-none-eabi-6-2017-q1-update/bin/../lib/gcc/arm-none-eabi/6.3.1/../../../../arm-none-eabi/lib/thumb/v7e-m/fpv4-sp/hard/libc.a(lib_a-mallocr.o)
                0x00000000200009a0                __malloc_trim_threshold
 .data.__global_locale
                0x00000000200009a4      0x16c /home/kaviya/ti/ccsv7/tools/compiler/gcc-arm-none-eabi-6-2017-q1-update/bin/../lib/gcc/arm-none-eabi/6.3.1/../../../../arm-none-eabi/lib/thumb/v7e-m/fpv4-sp/hard/libc.a(lib_a-locale.o)
                0x00000000200009a4                __global_locale
 .data.__heap_limit
                0x0000000020000b10        0x4 /home/kaviya/ti/ccsv7/tools/compiler/gcc-arm-none-eabi-6-2017-q1-update/bin/../lib/gcc/arm-none-eabi/6.3.1/../../../../arm-none-eabi/lib/thumb/v7e-m/fpv4-sp/hard/librdimon.a(rdimon-syscalls.o)
                0x0000000020000b10                __heap_limit
                0x0000000020000b14                . = ALIGN (0x4)
                0x0000000020000b14                __data_end__ = .

.jcr            0x0000000020000b14        0x4 load address 0x000000000000fbc8
 .jcr           0x0000000020000b14        0x0 /home/kaviya/ti/ccsv7/tools/compiler/gcc-arm-none-eabi-6-2017-q1-update/bin/../lib/gcc/arm-none-eabi/6.3.1/thumb/v7e-m/fpv4-sp/hard/crtbegin.o
 .jcr           0x0000000020000b14        0x4 /home/kaviya/ti/ccsv7/tools/compiler/gcc-arm-none-eabi-6-2017-q1-update/bin/../lib/gcc/arm-none-eabi/6.3.1/thumb/v7e-m/fpv4-sp/hard/crtend.o

.igot.plt       0x0000000020000b18        0x0 load address 0x000000000000fbcc
 .igot.plt      0x0000000020000b18        0x0 /home/kaviya/ti/ccsv7/tools/compiler/gcc-arm-none-eabi-6-2017-q1-update/bin/../lib/gcc/arm-none-eabi/6.3.1/thumb/v7e-m/fpv4-sp/hard/crtbegin.o

vtable          0x0000000020000c00      0x400 load address 0x000000000000fbcc
                [!provide]                        PROVIDE (__start_vtable, .)
 vtable         0x0000000020000c00      0x400 /home/kaviya/ti/TivaWare_C_Series-2.1.4.178/driverlib/gcc/libdriver.a(interrupt.o)
                [!provide]                        PROVIDE (__stop_vtable, .)

.ARM.exidx      0x000000000000ffcc        0x8
                0x000000000000ffcc                __exidx_start = .
 *(.ARM.exidx* .gnu.linkonce.armexidx.*)
 .ARM.exidx     0x000000000000ffcc        0x8 /home/kaviya/ti/ccsv7/tools/compiler/gcc-arm-none-eabi-6-2017-q1-update/bin/../lib/gcc/arm-none-eabi/6.3.1/../../../../arm-none-eabi/lib/thumb/v7e-m/fpv4-sp/hard/crt0.o
 .ARM.exidx     0x000000000000ffd4        0x0 /home/kaviya/ti/ccsv7/tools/compiler/gcc-arm-none-eabi-6-2017-q1-update/bin/../lib/gcc/arm-none-eabi/6.3.1/thumb/v7e-m/fpv4-sp/hard/libgcc.a(_udivmoddi4.o)
                                          0x8 (size before relaxing)
                0x000000000000ffd4                __exidx_end = .

.ARM.extab      0x000000000000ffd4        0x0
 *(.ARM.extab* .gnu.linkonce.armextab.*)
 .ARM.extab     0x000000000000ffd4        0x0 /home/kaviya/ti/ccsv7/tools/compiler/gcc-arm-none-eabi-6-2017-q1-update/bin/../lib/gcc/arm-none-eabi/6.3.1/../../../../arm-none-eabi/lib/thumb/v7e-m/fpv4-sp/hard/crt0.o
 .ARM.extab     0x000000000000ffd4        0x0 /home/kaviya/ti/ccsv7/tools/compiler/gcc-arm-none-eabi-6-2017-q1-update/bin/../lib/gcc/arm-none-eabi/6.3.1/thumb/v7e-m/fpv4-sp/hard/libgcc.a(_udivmoddi4.o)

.rel.dyn        0x000000000000ffd4        0x0
 .rel.iplt      0x000000000000ffd4        0x0 /home/kaviya/ti/ccsv7/tools/compiler/gcc-arm-none-eabi-6-2017-q1-update/bin/../lib/gcc/arm-none-eabi/6.3.1/thumb/v7e-m/fpv4-sp/hard/crtbegin.o

.bss            0x0000000020001000      0x430
                0x0000000020001000                __bss_start__ = .
 *(.shbss)
 *(.bss)
 .bss           0x0000000020001000        0x0 /home/kaviya/ti/ccsv7/tools/compiler/gcc-arm-none-eabi-6-2017-q1-update/bin/../lib/gcc/arm-none-eabi/6.3.1/thumb/v7e-m/fpv4-sp/hard/crti.o
 .bss           0x0000000020001000       0x1c /home/kaviya/ti/ccsv7/tools/compiler/gcc-arm-none-eabi-6-2017-q1-update/bin/../lib/gcc/arm-none-eabi/6.3.1/thumb/v7e-m/fpv4-sp/hard/crtbegin.o
 .bss           0x000000002000101c        0x0 /home/kaviya/ti/ccsv7/tools/compiler/gcc-arm-none-eabi-6-2017-q1-update/bin/../lib/gcc/arm-none-eabi/6.3.1/../../../../arm-none-eabi/lib/thumb/v7e-m/fpv4-sp/hard/crt0.o
 .bss           0x000000002000101c        0x0 ./Kentec320x240x16_ssd2119_spi.o
 .bss           0x000000002000101c        0x0 ./LCD.o
 .bss           0x000000002000101c        0x0 ./LCD_stairs.o
 .bss           0x000000002000101c        0x0 ./UART.o
 .bss           0x000000002000101c        0x0 ./tm4c123gh6pm_startup_ccs_gcc.o
 .bss           0x000000002000101c        0x0 ./ustdlib.o
 .bss           0x000000002000101c        0x0 /home/kaviya/ti/ccsv7/tools/compiler/gcc-arm-none-eabi-6-2017-q1-update/bin/../lib/gcc/arm-none-eabi/6.3.1/../../../../arm-none-eabi/lib/thumb/v7e-m/fpv4-sp/hard/libc.a(lib_a-exit.o)
 .bss           0x000000002000101c        0x0 /home/kaviya/ti/ccsv7/tools/compiler/gcc-arm-none-eabi-6-2017-q1-update/bin/../lib/gcc/arm-none-eabi/6.3.1/../../../../arm-none-eabi/lib/thumb/v7e-m/fpv4-sp/hard/libc.a(lib_a-impure.o)
 .bss           0x000000002000101c        0x0 /home/kaviya/ti/ccsv7/tools/compiler/gcc-arm-none-eabi-6-2017-q1-update/bin/../lib/gcc/arm-none-eabi/6.3.1/../../../../arm-none-eabi/lib/thumb/v7e-m/fpv4-sp/hard/libc.a(lib_a-init.o)
 .bss           0x000000002000101c        0x0 /home/kaviya/ti/ccsv7/tools/compiler/gcc-arm-none-eabi-6-2017-q1-update/bin/../lib/gcc/arm-none-eabi/6.3.1/../../../../arm-none-eabi/lib/thumb/v7e-m/fpv4-sp/hard/libc.a(lib_a-itoa.o)
 .bss           0x000000002000101c        0x0 /home/kaviya/ti/ccsv7/tools/compiler/gcc-arm-none-eabi-6-2017-q1-update/bin/../lib/gcc/arm-none-eabi/6.3.1/../../../../arm-none-eabi/lib/thumb/v7e-m/fpv4-sp/hard/libc.a(lib_a-memcpy.o)
 .bss           0x000000002000101c        0x0 /home/kaviya/ti/ccsv7/tools/compiler/gcc-arm-none-eabi-6-2017-q1-update/bin/../lib/gcc/arm-none-eabi/6.3.1/../../../../arm-none-eabi/lib/thumb/v7e-m/fpv4-sp/hard/libc.a(lib_a-memset.o)
 .bss           0x000000002000101c        0x0 /home/kaviya/ti/ccsv7/tools/compiler/gcc-arm-none-eabi-6-2017-q1-update/bin/../lib/gcc/arm-none-eabi/6.3.1/../../../../arm-none-eabi/lib/thumb/v7e-m/fpv4-sp/hard/libc.a(lib_a-printf.o)
 .bss           0x000000002000101c        0x0 /home/kaviya/ti/ccsv7/tools/compiler/gcc-arm-none-eabi-6-2017-q1-update/bin/../lib/gcc/arm-none-eabi/6.3.1/../../../../arm-none-eabi/lib/thumb/v7e-m/fpv4-sp/hard/libc.a(lib_a-strlen.o)
 .bss           0x000000002000101c        0x0 /home/kaviya/ti/ccsv7/tools/compiler/gcc-arm-none-eabi-6-2017-q1-update/bin/../lib/gcc/arm-none-eabi/6.3.1/../../../../arm-none-eabi/lib/thumb/v7e-m/fpv4-sp/hard/libc.a(lib_a-utoa.o)
 .bss           0x000000002000101c        0x0 /home/kaviya/ti/ccsv7/tools/compiler/gcc-arm-none-eabi-6-2017-q1-update/bin/../lib/gcc/arm-none-eabi/6.3.1/../../../../arm-none-eabi/lib/thumb/v7e-m/fpv4-sp/hard/libc.a(lib_a-vfprintf.o)
 .bss           0x000000002000101c        0x0 /home/kaviya/ti/ccsv7/tools/compiler/gcc-arm-none-eabi-6-2017-q1-update/bin/../lib/gcc/arm-none-eabi/6.3.1/../../../../arm-none-eabi/lib/thumb/v7e-m/fpv4-sp/hard/libc.a(lib_a-wsetup.o)
 .bss           0x000000002000101c        0x0 /home/kaviya/ti/ccsv7/tools/compiler/gcc-arm-none-eabi-6-2017-q1-update/bin/../lib/gcc/arm-none-eabi/6.3.1/../../../../arm-none-eabi/lib/thumb/v7e-m/fpv4-sp/hard/libc.a(lib_a-__call_atexit.o)
 .bss           0x000000002000101c        0x0 /home/kaviya/ti/ccsv7/tools/compiler/gcc-arm-none-eabi-6-2017-q1-update/bin/../lib/gcc/arm-none-eabi/6.3.1/../../../../arm-none-eabi/lib/thumb/v7e-m/fpv4-sp/hard/libc.a(lib_a-atexit.o)
 .bss           0x000000002000101c        0x0 /home/kaviya/ti/ccsv7/tools/compiler/gcc-arm-none-eabi-6-2017-q1-update/bin/../lib/gcc/arm-none-eabi/6.3.1/../../../../arm-none-eabi/lib/thumb/v7e-m/fpv4-sp/hard/libc.a(lib_a-dtoa.o)
 .bss           0x000000002000101c        0x0 /home/kaviya/ti/ccsv7/tools/compiler/gcc-arm-none-eabi-6-2017-q1-update/bin/../lib/gcc/arm-none-eabi/6.3.1/../../../../arm-none-eabi/lib/thumb/v7e-m/fpv4-sp/hard/libc.a(lib_a-fflush.o)
 .bss           0x000000002000101c        0x0 /home/kaviya/ti/ccsv7/tools/compiler/gcc-arm-none-eabi-6-2017-q1-update/bin/../lib/gcc/arm-none-eabi/6.3.1/../../../../arm-none-eabi/lib/thumb/v7e-m/fpv4-sp/hard/libc.a(lib_a-findfp.o)
 .bss           0x000000002000101c        0x0 /home/kaviya/ti/ccsv7/tools/compiler/gcc-arm-none-eabi-6-2017-q1-update/bin/../lib/gcc/arm-none-eabi/6.3.1/../../../../arm-none-eabi/lib/thumb/v7e-m/fpv4-sp/hard/libc.a(lib_a-fini.o)
 .bss           0x000000002000101c        0x0 /home/kaviya/ti/ccsv7/tools/compiler/gcc-arm-none-eabi-6-2017-q1-update/bin/../lib/gcc/arm-none-eabi/6.3.1/../../../../arm-none-eabi/lib/thumb/v7e-m/fpv4-sp/hard/libc.a(lib_a-freer.o)
 .bss           0x000000002000101c        0x0 /home/kaviya/ti/ccsv7/tools/compiler/gcc-arm-none-eabi-6-2017-q1-update/bin/../lib/gcc/arm-none-eabi/6.3.1/../../../../arm-none-eabi/lib/thumb/v7e-m/fpv4-sp/hard/libc.a(lib_a-fwalk.o)
 .bss           0x000000002000101c        0x0 /home/kaviya/ti/ccsv7/tools/compiler/gcc-arm-none-eabi-6-2017-q1-update/bin/../lib/gcc/arm-none-eabi/6.3.1/../../../../arm-none-eabi/lib/thumb/v7e-m/fpv4-sp/hard/libc.a(lib_a-localeconv.o)
 .bss           0x000000002000101c        0x0 /home/kaviya/ti/ccsv7/tools/compiler/gcc-arm-none-eabi-6-2017-q1-update/bin/../lib/gcc/arm-none-eabi/6.3.1/../../../../arm-none-eabi/lib/thumb/v7e-m/fpv4-sp/hard/libc.a(lib_a-lock.o)
 .bss           0x000000002000101c        0x0 /home/kaviya/ti/ccsv7/tools/compiler/gcc-arm-none-eabi-6-2017-q1-update/bin/../lib/gcc/arm-none-eabi/6.3.1/../../../../arm-none-eabi/lib/thumb/v7e-m/fpv4-sp/hard/libc.a(lib_a-makebuf.o)
 .bss           0x000000002000101c        0x0 /home/kaviya/ti/ccsv7/tools/compiler/gcc-arm-none-eabi-6-2017-q1-update/bin/../lib/gcc/arm-none-eabi/6.3.1/../../../../arm-none-eabi/lib/thumb/v7e-m/fpv4-sp/hard/libc.a(lib_a-mallocr.o)
 .bss           0x000000002000101c        0x0 /home/kaviya/ti/ccsv7/tools/compiler/gcc-arm-none-eabi-6-2017-q1-update/bin/../lib/gcc/arm-none-eabi/6.3.1/../../../../arm-none-eabi/lib/thumb/v7e-m/fpv4-sp/hard/libc.a(lib_a-memchr.o)
 .bss           0x000000002000101c        0x0 /home/kaviya/ti/ccsv7/tools/compiler/gcc-arm-none-eabi-6-2017-q1-update/bin/../lib/gcc/arm-none-eabi/6.3.1/../../../../arm-none-eabi/lib/thumb/v7e-m/fpv4-sp/hard/libc.a(lib_a-mlock.o)
 .bss           0x000000002000101c        0x0 /home/kaviya/ti/ccsv7/tools/compiler/gcc-arm-none-eabi-6-2017-q1-update/bin/../lib/gcc/arm-none-eabi/6.3.1/../../../../arm-none-eabi/lib/thumb/v7e-m/fpv4-sp/hard/libc.a(lib_a-mprec.o)
 .bss           0x000000002000101c        0x0 /home/kaviya/ti/ccsv7/tools/compiler/gcc-arm-none-eabi-6-2017-q1-update/bin/../lib/gcc/arm-none-eabi/6.3.1/../../../../arm-none-eabi/lib/thumb/v7e-m/fpv4-sp/hard/libc.a(lib_a-sbrkr.o)
 .bss           0x000000002000101c        0x0 /home/kaviya/ti/ccsv7/tools/compiler/gcc-arm-none-eabi-6-2017-q1-update/bin/../lib/gcc/arm-none-eabi/6.3.1/../../../../arm-none-eabi/lib/thumb/v7e-m/fpv4-sp/hard/libc.a(lib_a-stdio.o)
 .bss           0x000000002000101c        0x0 /home/kaviya/ti/ccsv7/tools/compiler/gcc-arm-none-eabi-6-2017-q1-update/bin/../lib/gcc/arm-none-eabi/6.3.1/../../../../arm-none-eabi/lib/thumb/v7e-m/fpv4-sp/hard/libc.a(lib_a-vfiprintf.o)
 .bss           0x000000002000101c        0x0 /home/kaviya/ti/ccsv7/tools/compiler/gcc-arm-none-eabi-6-2017-q1-update/bin/../lib/gcc/arm-none-eabi/6.3.1/../../../../arm-none-eabi/lib/thumb/v7e-m/fpv4-sp/hard/libc.a(lib_a-writer.o)
 .bss           0x000000002000101c        0x0 /home/kaviya/ti/ccsv7/tools/compiler/gcc-arm-none-eabi-6-2017-q1-update/bin/../lib/gcc/arm-none-eabi/6.3.1/../../../../arm-none-eabi/lib/thumb/v7e-m/fpv4-sp/hard/libc.a(lib_a-__atexit.o)
 .bss           0x000000002000101c        0x0 /home/kaviya/ti/ccsv7/tools/compiler/gcc-arm-none-eabi-6-2017-q1-update/bin/../lib/gcc/arm-none-eabi/6.3.1/../../../../arm-none-eabi/lib/thumb/v7e-m/fpv4-sp/hard/libc.a(lib_a-callocr.o)
 .bss           0x000000002000101c        0x0 /home/kaviya/ti/ccsv7/tools/compiler/gcc-arm-none-eabi-6-2017-q1-update/bin/../lib/gcc/arm-none-eabi/6.3.1/../../../../arm-none-eabi/lib/thumb/v7e-m/fpv4-sp/hard/libc.a(lib_a-closer.o)
 .bss           0x000000002000101c        0x0 /home/kaviya/ti/ccsv7/tools/compiler/gcc-arm-none-eabi-6-2017-q1-update/bin/../lib/gcc/arm-none-eabi/6.3.1/../../../../arm-none-eabi/lib/thumb/v7e-m/fpv4-sp/hard/libc.a(lib_a-fclose.o)
 .bss           0x000000002000101c        0x0 /home/kaviya/ti/ccsv7/tools/compiler/gcc-arm-none-eabi-6-2017-q1-update/bin/../lib/gcc/arm-none-eabi/6.3.1/../../../../arm-none-eabi/lib/thumb/v7e-m/fpv4-sp/hard/libc.a(lib_a-fputwc.o)
 .bss           0x000000002000101c        0x0 /home/kaviya/ti/ccsv7/tools/compiler/gcc-arm-none-eabi-6-2017-q1-update/bin/../lib/gcc/arm-none-eabi/6.3.1/../../../../arm-none-eabi/lib/thumb/v7e-m/fpv4-sp/hard/libc.a(lib_a-fstatr.o)
 .bss           0x000000002000101c        0x0 /home/kaviya/ti/ccsv7/tools/compiler/gcc-arm-none-eabi-6-2017-q1-update/bin/../lib/gcc/arm-none-eabi/6.3.1/../../../../arm-none-eabi/lib/thumb/v7e-m/fpv4-sp/hard/libc.a(lib_a-fvwrite.o)
 .bss           0x000000002000101c        0x0 /home/kaviya/ti/ccsv7/tools/compiler/gcc-arm-none-eabi-6-2017-q1-update/bin/../lib/gcc/arm-none-eabi/6.3.1/../../../../arm-none-eabi/lib/thumb/v7e-m/fpv4-sp/hard/libc.a(lib_a-isattyr.o)
 .bss           0x000000002000101c        0x0 /home/kaviya/ti/ccsv7/tools/compiler/gcc-arm-none-eabi-6-2017-q1-update/bin/../lib/gcc/arm-none-eabi/6.3.1/../../../../arm-none-eabi/lib/thumb/v7e-m/fpv4-sp/hard/libc.a(lib_a-locale.o)
 .bss           0x000000002000101c        0x0 /home/kaviya/ti/ccsv7/tools/compiler/gcc-arm-none-eabi-6-2017-q1-update/bin/../lib/gcc/arm-none-eabi/6.3.1/../../../../arm-none-eabi/lib/thumb/v7e-m/fpv4-sp/hard/libc.a(lib_a-lseekr.o)
 .bss           0x000000002000101c        0x0 /home/kaviya/ti/ccsv7/tools/compiler/gcc-arm-none-eabi-6-2017-q1-update/bin/../lib/gcc/arm-none-eabi/6.3.1/../../../../arm-none-eabi/lib/thumb/v7e-m/fpv4-sp/hard/libc.a(lib_a-mbtowc_r.o)
 .bss           0x000000002000101c        0x0 /home/kaviya/ti/ccsv7/tools/compiler/gcc-arm-none-eabi-6-2017-q1-update/bin/../lib/gcc/arm-none-eabi/6.3.1/../../../../arm-none-eabi/lib/thumb/v7e-m/fpv4-sp/hard/libc.a(lib_a-memmove.o)
 .bss           0x000000002000101c        0x0 /home/kaviya/ti/ccsv7/tools/compiler/gcc-arm-none-eabi-6-2017-q1-update/bin/../lib/gcc/arm-none-eabi/6.3.1/../../../../arm-none-eabi/lib/thumb/v7e-m/fpv4-sp/hard/libc.a(lib_a-readr.o)
 .bss           0x000000002000101c        0x0 /home/kaviya/ti/ccsv7/tools/compiler/gcc-arm-none-eabi-6-2017-q1-update/bin/../lib/gcc/arm-none-eabi/6.3.1/../../../../arm-none-eabi/lib/thumb/v7e-m/fpv4-sp/hard/libc.a(lib_a-reallocr.o)
 .bss           0x000000002000101c        0x0 /home/kaviya/ti/ccsv7/tools/compiler/gcc-arm-none-eabi-6-2017-q1-update/bin/../lib/gcc/arm-none-eabi/6.3.1/../../../../arm-none-eabi/lib/thumb/v7e-m/fpv4-sp/hard/libc.a(lib_a-reent.o)
 .bss           0x000000002000101c        0x0 /home/kaviya/ti/ccsv7/tools/compiler/gcc-arm-none-eabi-6-2017-q1-update/bin/../lib/gcc/arm-none-eabi/6.3.1/../../../../arm-none-eabi/lib/thumb/v7e-m/fpv4-sp/hard/libc.a(lib_a-strcmp.o)
 .bss           0x000000002000101c        0x0 /home/kaviya/ti/ccsv7/tools/compiler/gcc-arm-none-eabi-6-2017-q1-update/bin/../lib/gcc/arm-none-eabi/6.3.1/../../../../arm-none-eabi/lib/thumb/v7e-m/fpv4-sp/hard/libc.a(lib_a-wbuf.o)
 .bss           0x000000002000101c        0x0 /home/kaviya/ti/ccsv7/tools/compiler/gcc-arm-none-eabi-6-2017-q1-update/bin/../lib/gcc/arm-none-eabi/6.3.1/../../../../arm-none-eabi/lib/thumb/v7e-m/fpv4-sp/hard/libc.a(lib_a-wcrtomb.o)
 .bss           0x000000002000101c        0x0 /home/kaviya/ti/ccsv7/tools/compiler/gcc-arm-none-eabi-6-2017-q1-update/bin/../lib/gcc/arm-none-eabi/6.3.1/../../../../arm-none-eabi/lib/thumb/v7e-m/fpv4-sp/hard/libc.a(lib_a-wctomb_r.o)
 .bss           0x000000002000101c        0x0 /home/kaviya/ti/ccsv7/tools/compiler/gcc-arm-none-eabi-6-2017-q1-update/bin/../lib/gcc/arm-none-eabi/6.3.1/../../../../arm-none-eabi/lib/thumb/v7e-m/fpv4-sp/hard/libc.a(lib_a-ctype_.o)
 .bss           0x000000002000101c        0x0 /home/kaviya/ti/ccsv7/tools/compiler/gcc-arm-none-eabi-6-2017-q1-update/bin/../lib/gcc/arm-none-eabi/6.3.1/../../../../arm-none-eabi/lib/thumb/v7e-m/fpv4-sp/hard/librdimon.a(rdimon-syscalls.o)
 .bss           0x000000002000101c        0x0 /home/kaviya/ti/ccsv7/tools/compiler/gcc-arm-none-eabi-6-2017-q1-update/bin/../lib/gcc/arm-none-eabi/6.3.1/../../../../arm-none-eabi/lib/thumb/v7e-m/fpv4-sp/hard/librdimon.a(rdimon-_exit.o)
 .bss           0x000000002000101c        0x0 /home/kaviya/ti/ccsv7/tools/compiler/gcc-arm-none-eabi-6-2017-q1-update/bin/../lib/gcc/arm-none-eabi/6.3.1/../../../../arm-none-eabi/lib/thumb/v7e-m/fpv4-sp/hard/librdimon.a(rdimon-_kill.o)
 .bss           0x000000002000101c        0x0 /home/kaviya/ti/ccsv7/tools/compiler/gcc-arm-none-eabi-6-2017-q1-update/bin/../lib/gcc/arm-none-eabi/6.3.1/../../../../arm-none-eabi/lib/thumb/v7e-m/fpv4-sp/hard/libc.a(lib_a-errno.o)
 .bss           0x000000002000101c        0x0 /home/kaviya/ti/TivaWare_C_Series-2.1.4.178/driverlib/gcc/libdriver.a(fpu.o)
 .bss           0x000000002000101c        0x0 /home/kaviya/ti/TivaWare_C_Series-2.1.4.178/driverlib/gcc/libdriver.a(gpio.o)
 .bss           0x000000002000101c        0x0 /home/kaviya/ti/TivaWare_C_Series-2.1.4.178/driverlib/gcc/libdriver.a(interrupt.o)
 .bss           0x000000002000101c        0x0 /home/kaviya/ti/TivaWare_C_Series-2.1.4.178/driverlib/gcc/libdriver.a(ssi.o)
 .bss           0x000000002000101c        0x0 /home/kaviya/ti/TivaWare_C_Series-2.1.4.178/driverlib/gcc/libdriver.a(sysctl.o)
 .bss           0x000000002000101c        0x0 /home/kaviya/ti/TivaWare_C_Series-2.1.4.178/driverlib/gcc/libdriver.a(uart.o)
 .bss           0x000000002000101c        0x0 /home/kaviya/ti/TivaWare_C_Series-2.1.4.178/driverlib/gcc/libdriver.a(cpu.o)
 .bss           0x000000002000101c        0x0 /home/kaviya/ti/TivaWare_C_Series-2.1.4.178/grlib/gcc/libgr.a(context.o)
 .bss           0x000000002000101c        0x0 /home/kaviya/ti/TivaWare_C_Series-2.1.4.178/grlib/gcc/libgr.a(fontcm12.o)
 .bss           0x000000002000101c        0x0 /home/kaviya/ti/TivaWare_C_Series-2.1.4.178/grlib/gcc/libgr.a(line.o)
 .bss           0x000000002000101c        0x0 /home/kaviya/ti/TivaWare_C_Series-2.1.4.178/grlib/gcc/libgr.a(rectangle.o)
 .bss           0x000000002000101c        0x0 /home/kaviya/ti/TivaWare_C_Series-2.1.4.178/grlib/gcc/libgr.a(string.o)
 .bss           0x000000002000101c        0x0 /home/kaviya/ti/TivaWare_C_Series-2.1.4.178/grlib/gcc/libgr.a(charmap.o)
 .bss           0x000000002000101c        0x0 /home/kaviya/ti/ccsv7/tools/compiler/gcc-arm-none-eabi-6-2017-q1-update/bin/../lib/gcc/arm-none-eabi/6.3.1/thumb/v7e-m/fpv4-sp/hard/libgcc.a(_arm_addsubdf3.o)
 .bss           0x000000002000101c        0x0 /home/kaviya/ti/ccsv7/tools/compiler/gcc-arm-none-eabi-6-2017-q1-update/bin/../lib/gcc/arm-none-eabi/6.3.1/thumb/v7e-m/fpv4-sp/hard/libgcc.a(_arm_muldivdf3.o)
 .bss           0x000000002000101c        0x0 /home/kaviya/ti/ccsv7/tools/compiler/gcc-arm-none-eabi-6-2017-q1-update/bin/../lib/gcc/arm-none-eabi/6.3.1/thumb/v7e-m/fpv4-sp/hard/libgcc.a(_arm_cmpdf2.o)
 .bss           0x000000002000101c        0x0 /home/kaviya/ti/ccsv7/tools/compiler/gcc-arm-none-eabi-6-2017-q1-update/bin/../lib/gcc/arm-none-eabi/6.3.1/thumb/v7e-m/fpv4-sp/hard/libgcc.a(_arm_unorddf2.o)
 .bss           0x000000002000101c        0x0 /home/kaviya/ti/ccsv7/tools/compiler/gcc-arm-none-eabi-6-2017-q1-update/bin/../lib/gcc/arm-none-eabi/6.3.1/thumb/v7e-m/fpv4-sp/hard/libgcc.a(_arm_fixdfsi.o)
 .bss           0x000000002000101c        0x0 /home/kaviya/ti/ccsv7/tools/compiler/gcc-arm-none-eabi-6-2017-q1-update/bin/../lib/gcc/arm-none-eabi/6.3.1/thumb/v7e-m/fpv4-sp/hard/libgcc.a(_arm_truncdfsf2.o)
 .bss           0x000000002000101c        0x0 /home/kaviya/ti/ccsv7/tools/compiler/gcc-arm-none-eabi-6-2017-q1-update/bin/../lib/gcc/arm-none-eabi/6.3.1/thumb/v7e-m/fpv4-sp/hard/libgcc.a(_aeabi_uldivmod.o)
 .bss           0x000000002000101c        0x0 /home/kaviya/ti/ccsv7/tools/compiler/gcc-arm-none-eabi-6-2017-q1-update/bin/../lib/gcc/arm-none-eabi/6.3.1/thumb/v7e-m/fpv4-sp/hard/libgcc.a(_udivmoddi4.o)
 .bss           0x000000002000101c        0x0 /home/kaviya/ti/ccsv7/tools/compiler/gcc-arm-none-eabi-6-2017-q1-update/bin/../lib/gcc/arm-none-eabi/6.3.1/thumb/v7e-m/fpv4-sp/hard/libgcc.a(_dvmd_tls.o)
 .bss           0x000000002000101c        0x0 /home/kaviya/ti/ccsv7/tools/compiler/gcc-arm-none-eabi-6-2017-q1-update/bin/../lib/gcc/arm-none-eabi/6.3.1/thumb/v7e-m/fpv4-sp/hard/crtend.o
 .bss           0x000000002000101c        0x0 /home/kaviya/ti/ccsv7/tools/compiler/gcc-arm-none-eabi-6-2017-q1-update/bin/../lib/gcc/arm-none-eabi/6.3.1/thumb/v7e-m/fpv4-sp/hard/crtn.o
 *(.bss.*)
 .bss.get_string_flag
                0x000000002000101c        0x1 ./UART.o
                0x000000002000101c                get_string_flag
 .bss.i         0x000000002000101d        0x1 ./UART.o
                0x000000002000101d                i
 *fill*         0x000000002000101e        0x2 
 .bss.pui32Stack
                0x0000000020001020      0x200 ./tm4c123gh6pm_startup_ccs_gcc.o
 .bss.__malloc_current_mallinfo
                0x0000000020001220       0x28 /home/kaviya/ti/ccsv7/tools/compiler/gcc-arm-none-eabi-6-2017-q1-update/bin/../lib/gcc/arm-none-eabi/6.3.1/../../../../arm-none-eabi/lib/thumb/v7e-m/fpv4-sp/hard/libc.a(lib_a-mallocr.o)
                0x0000000020001220                __malloc_current_mallinfo
 .bss.__malloc_max_sbrked_mem
                0x0000000020001248        0x4 /home/kaviya/ti/ccsv7/tools/compiler/gcc-arm-none-eabi-6-2017-q1-update/bin/../lib/gcc/arm-none-eabi/6.3.1/../../../../arm-none-eabi/lib/thumb/v7e-m/fpv4-sp/hard/libc.a(lib_a-mallocr.o)
                0x0000000020001248                __malloc_max_sbrked_mem
 .bss.__malloc_max_total_mem
                0x000000002000124c        0x4 /home/kaviya/ti/ccsv7/tools/compiler/gcc-arm-none-eabi-6-2017-q1-update/bin/../lib/gcc/arm-none-eabi/6.3.1/../../../../arm-none-eabi/lib/thumb/v7e-m/fpv4-sp/hard/libc.a(lib_a-mallocr.o)
                0x000000002000124c                __malloc_max_total_mem
 .bss.__malloc_top_pad
                0x0000000020001250        0x4 /home/kaviya/ti/ccsv7/tools/compiler/gcc-arm-none-eabi-6-2017-q1-update/bin/../lib/gcc/arm-none-eabi/6.3.1/../../../../arm-none-eabi/lib/thumb/v7e-m/fpv4-sp/hard/libc.a(lib_a-mallocr.o)
                0x0000000020001250                __malloc_top_pad
 .bss._PathLocale
                0x0000000020001254        0x4 /home/kaviya/ti/ccsv7/tools/compiler/gcc-arm-none-eabi-6-2017-q1-update/bin/../lib/gcc/arm-none-eabi/6.3.1/../../../../arm-none-eabi/lib/thumb/v7e-m/fpv4-sp/hard/libc.a(lib_a-locale.o)
                0x0000000020001254                _PathLocale
 .bss.heap_end.7297
                0x0000000020001258        0x4 /home/kaviya/ti/ccsv7/tools/compiler/gcc-arm-none-eabi-6-2017-q1-update/bin/../lib/gcc/arm-none-eabi/6.3.1/../../../../arm-none-eabi/lib/thumb/v7e-m/fpv4-sp/hard/librdimon.a(rdimon-syscalls.o)
 .bss.monitor_stderr
                0x000000002000125c        0x4 /home/kaviya/ti/ccsv7/tools/compiler/gcc-arm-none-eabi-6-2017-q1-update/bin/../lib/gcc/arm-none-eabi/6.3.1/../../../../arm-none-eabi/lib/thumb/v7e-m/fpv4-sp/hard/librdimon.a(rdimon-syscalls.o)
 .bss.monitor_stdin
                0x0000000020001260        0x4 /home/kaviya/ti/ccsv7/tools/compiler/gcc-arm-none-eabi-6-2017-q1-update/bin/../lib/gcc/arm-none-eabi/6.3.1/../../../../arm-none-eabi/lib/thumb/v7e-m/fpv4-sp/hard/librdimon.a(rdimon-syscalls.o)
 .bss.monitor_stdout
                0x0000000020001264        0x4 /home/kaviya/ti/ccsv7/tools/compiler/gcc-arm-none-eabi-6-2017-q1-update/bin/../lib/gcc/arm-none-eabi/6.3.1/../../../../arm-none-eabi/lib/thumb/v7e-m/fpv4-sp/hard/librdimon.a(rdimon-syscalls.o)
 .bss.openfiles
                0x0000000020001268       0xa0 /home/kaviya/ti/ccsv7/tools/compiler/gcc-arm-none-eabi-6-2017-q1-update/bin/../lib/gcc/arm-none-eabi/6.3.1/../../../../arm-none-eabi/lib/thumb/v7e-m/fpv4-sp/hard/librdimon.a(rdimon-syscalls.o)
 .bss.g_psGrLibDefaults
                0x0000000020001308        0x4 /home/kaviya/ti/TivaWare_C_Series-2.1.4.178/grlib/gcc/libgr.a(context.o)
 .bss.g_pui16LanguageTable
                0x000000002000130c        0x4 /home/kaviya/ti/TivaWare_C_Series-2.1.4.178/grlib/gcc/libgr.a(string.o)
 .bss.g_ui16NumLanguages
                0x0000000020001310        0x2 /home/kaviya/ti/TivaWare_C_Series-2.1.4.178/grlib/gcc/libgr.a(string.o)
 .bss.g_ui16NumStrings
                0x0000000020001312        0x2 /home/kaviya/ti/TivaWare_C_Series-2.1.4.178/grlib/gcc/libgr.a(string.o)
 .bss.g_pui8StringData
                0x0000000020001314        0x4 /home/kaviya/ti/TivaWare_C_Series-2.1.4.178/grlib/gcc/libgr.a(string.o)
 .bss.g_pui32StringTable
                0x0000000020001318        0x4 /home/kaviya/ti/TivaWare_C_Series-2.1.4.178/grlib/gcc/libgr.a(string.o)
 .bss.g_ui16Language
                0x000000002000131c        0x2 /home/kaviya/ti/TivaWare_C_Series-2.1.4.178/grlib/gcc/libgr.a(string.o)
 *(COMMON)
 *fill*         0x000000002000131e        0x2 
 COMMON         0x0000000020001320       0x84 ./LCD.o
                0x0000000020001320                Rect_t2
                0x0000000020001328                Rect_t1
                0x0000000020001330                sRect
                0x0000000020001338                Rect_R
                0x0000000020001340                sContext
                0x000000002000136c                str_left
                0x0000000020001378                str_time
                0x0000000020001384                Rect_M
                0x000000002000138c                str_right
                0x0000000020001398                Rect_L
                0x00000000200013a0                ui32SysClock
 COMMON         0x00000000200013a4       0x64 ./UART.o
                0x00000000200013a4                string
 COMMON         0x0000000020001408       0x21 /home/kaviya/ti/ccsv7/tools/compiler/gcc-arm-none-eabi-6-2017-q1-update/bin/../lib/gcc/arm-none-eabi/6.3.1/../../../../arm-none-eabi/lib/thumb/v7e-m/fpv4-sp/hard/libc.a(lib_a-lock.o)
                0x0000000020001408                __lock___atexit_recursive_mutex
                0x000000002000140c                __lock___arc4random_mutex
                0x0000000020001410                __lock___env_recursive_mutex
                0x0000000020001414                __lock___sinit_recursive_mutex
                0x0000000020001418                __lock___malloc_recursive_mutex
                0x000000002000141c                __lock___at_quick_exit_mutex
                0x0000000020001420                __lock___dd_hash_mutex
                0x0000000020001424                __lock___tz_mutex
                0x0000000020001428                __lock___sfp_recursive_mutex
 *fill*         0x0000000020001429        0x3 
 COMMON         0x000000002000142c        0x4 /home/kaviya/ti/ccsv7/tools/compiler/gcc-arm-none-eabi-6-2017-q1-update/bin/../lib/gcc/arm-none-eabi/6.3.1/../../../../arm-none-eabi/lib/thumb/v7e-m/fpv4-sp/hard/libc.a(lib_a-reent.o)
                0x000000002000142c                errno
                0x0000000020001430                . = ALIGN (0x4)
                0x0000000020001430                __bss_end__ = .

.heap           0x0000000020001430        0x0
                0x0000000020001430                __heap_start__ = .
                0x0000000020001430                end = __heap_start__
                0x0000000020001430                _end = end
                0x0000000020001430                __end = end
 *(.heap)
                0x0000000020001430                __heap_end__ = .
                0x0000000020001430                __HeapLimit = __heap_end__

.stack          0x0000000020001430        0x0
                0x0000000020001430                _stack = .
                0x0000000020001430                __stack = .
 *(.stack)
START GROUP
LOAD /home/kaviya/ti/ccsv7/tools/compiler/gcc-arm-none-eabi-6-2017-q1-update/bin/../lib/gcc/arm-none-eabi/6.3.1/../../../../arm-none-eabi/lib/thumb/v7e-m/fpv4-sp/hard/libc.a
LOAD /home/kaviya/ti/ccsv7/tools/compiler/gcc-arm-none-eabi-6-2017-q1-update/bin/../lib/gcc/arm-none-eabi/6.3.1/../../../../arm-none-eabi/lib/thumb/v7e-m/fpv4-sp/hard/librdimon.a
END GROUP
LOAD /home/kaviya/ti/TivaWare_C_Series-2.1.4.178/driverlib/gcc/libdriver.a
LOAD /home/kaviya/ti/TivaWare_C_Series-2.1.4.178/grlib/gcc/libgr.a
START GROUP
LOAD /home/kaviya/ti/ccsv7/tools/compiler/gcc-arm-none-eabi-6-2017-q1-update/bin/../lib/gcc/arm-none-eabi/6.3.1/thumb/v7e-m/fpv4-sp/hard/libgcc.a
LOAD /home/kaviya/ti/ccsv7/tools/compiler/gcc-arm-none-eabi-6-2017-q1-update/bin/../lib/gcc/arm-none-eabi/6.3.1/../../../../arm-none-eabi/lib/thumb/v7e-m/fpv4-sp/hard/libg.a
LOAD /home/kaviya/ti/ccsv7/tools/compiler/gcc-arm-none-eabi-6-2017-q1-update/bin/../lib/gcc/arm-none-eabi/6.3.1/../../../../arm-none-eabi/lib/thumb/v7e-m/fpv4-sp/hard/libc.a
END GROUP
START GROUP
LOAD /home/kaviya/ti/ccsv7/tools/compiler/gcc-arm-none-eabi-6-2017-q1-update/bin/../lib/gcc/arm-none-eabi/6.3.1/thumb/v7e-m/fpv4-sp/hard/libgcc.a
LOAD /home/kaviya/ti/ccsv7/tools/compiler/gcc-arm-none-eabi-6-2017-q1-update/bin/../lib/gcc/arm-none-eabi/6.3.1/../../../../arm-none-eabi/lib/thumb/v7e-m/fpv4-sp/hard/libc.a
LOAD /home/kaviya/ti/ccsv7/tools/compiler/gcc-arm-none-eabi-6-2017-q1-update/bin/../lib/gcc/arm-none-eabi/6.3.1/../../../../arm-none-eabi/lib/thumb/v7e-m/fpv4-sp/hard/libnosys.a
END GROUP
LOAD /home/kaviya/ti/ccsv7/tools/compiler/gcc-arm-none-eabi-6-2017-q1-update/bin/../lib/gcc/arm-none-eabi/6.3.1/thumb/v7e-m/fpv4-sp/hard/crtend.o
LOAD /home/kaviya/ti/ccsv7/tools/compiler/gcc-arm-none-eabi-6-2017-q1-update/bin/../lib/gcc/arm-none-eabi/6.3.1/thumb/v7e-m/fpv4-sp/hard/crtn.o
OUTPUT(LCD_Display.out elf32-littlearm)

.ARM.attributes
                0x0000000000000000       0x30
 .ARM.attributes
                0x0000000000000000       0x22 /home/kaviya/ti/ccsv7/tools/compiler/gcc-arm-none-eabi-6-2017-q1-update/bin/../lib/gcc/arm-none-eabi/6.3.1/thumb/v7e-m/fpv4-sp/hard/crti.o
 .ARM.attributes
                0x0000000000000022       0x34 /home/kaviya/ti/ccsv7/tools/compiler/gcc-arm-none-eabi-6-2017-q1-update/bin/../lib/gcc/arm-none-eabi/6.3.1/thumb/v7e-m/fpv4-sp/hard/crtbegin.o
 .ARM.attributes
                0x0000000000000056       0x20 /home/kaviya/ti/ccsv7/tools/compiler/gcc-arm-none-eabi-6-2017-q1-update/bin/../lib/gcc/arm-none-eabi/6.3.1/../../../../arm-none-eabi/lib/thumb/v7e-m/fpv4-sp/hard/crt0.o
 .ARM.attributes
                0x0000000000000076       0x39 ./Kentec320x240x16_ssd2119_spi.o
 .ARM.attributes
                0x00000000000000af       0x39 ./LCD.o
 .ARM.attributes
                0x00000000000000e8       0x39 ./LCD_stairs.o
 .ARM.attributes
                0x0000000000000121       0x39 ./UART.o
 .ARM.attributes
                0x000000000000015a       0x39 ./tm4c123gh6pm_startup_ccs_gcc.o
 .ARM.attributes
                0x0000000000000193       0x39 ./ustdlib.o
 .ARM.attributes
                0x00000000000001cc       0x34 /home/kaviya/ti/ccsv7/tools/compiler/gcc-arm-none-eabi-6-2017-q1-update/bin/../lib/gcc/arm-none-eabi/6.3.1/../../../../arm-none-eabi/lib/thumb/v7e-m/fpv4-sp/hard/libc.a(lib_a-exit.o)
 .ARM.attributes
                0x0000000000000200       0x34 /home/kaviya/ti/ccsv7/tools/compiler/gcc-arm-none-eabi-6-2017-q1-update/bin/../lib/gcc/arm-none-eabi/6.3.1/../../../../arm-none-eabi/lib/thumb/v7e-m/fpv4-sp/hard/libc.a(lib_a-impure.o)
 .ARM.attributes
                0x0000000000000234       0x34 /home/kaviya/ti/ccsv7/tools/compiler/gcc-arm-none-eabi-6-2017-q1-update/bin/../lib/gcc/arm-none-eabi/6.3.1/../../../../arm-none-eabi/lib/thumb/v7e-m/fpv4-sp/hard/libc.a(lib_a-init.o)
 .ARM.attributes
                0x0000000000000268       0x34 /home/kaviya/ti/ccsv7/tools/compiler/gcc-arm-none-eabi-6-2017-q1-update/bin/../lib/gcc/arm-none-eabi/6.3.1/../../../../arm-none-eabi/lib/thumb/v7e-m/fpv4-sp/hard/libc.a(lib_a-itoa.o)
 .ARM.attributes
                0x000000000000029c       0x20 /home/kaviya/ti/ccsv7/tools/compiler/gcc-arm-none-eabi-6-2017-q1-update/bin/../lib/gcc/arm-none-eabi/6.3.1/../../../../arm-none-eabi/lib/thumb/v7e-m/fpv4-sp/hard/libc.a(lib_a-memcpy.o)
 .ARM.attributes
                0x00000000000002bc       0x34 /home/kaviya/ti/ccsv7/tools/compiler/gcc-arm-none-eabi-6-2017-q1-update/bin/../lib/gcc/arm-none-eabi/6.3.1/../../../../arm-none-eabi/lib/thumb/v7e-m/fpv4-sp/hard/libc.a(lib_a-memset.o)
 .ARM.attributes
                0x00000000000002f0       0x34 /home/kaviya/ti/ccsv7/tools/compiler/gcc-arm-none-eabi-6-2017-q1-update/bin/../lib/gcc/arm-none-eabi/6.3.1/../../../../arm-none-eabi/lib/thumb/v7e-m/fpv4-sp/hard/libc.a(lib_a-printf.o)
 .ARM.attributes
                0x0000000000000324       0x20 /home/kaviya/ti/ccsv7/tools/compiler/gcc-arm-none-eabi-6-2017-q1-update/bin/../lib/gcc/arm-none-eabi/6.3.1/../../../../arm-none-eabi/lib/thumb/v7e-m/fpv4-sp/hard/libc.a(lib_a-strlen.o)
 .ARM.attributes
                0x0000000000000344       0x34 /home/kaviya/ti/ccsv7/tools/compiler/gcc-arm-none-eabi-6-2017-q1-update/bin/../lib/gcc/arm-none-eabi/6.3.1/../../../../arm-none-eabi/lib/thumb/v7e-m/fpv4-sp/hard/libc.a(lib_a-utoa.o)
 .ARM.attributes
                0x0000000000000378       0x34 /home/kaviya/ti/ccsv7/tools/compiler/gcc-arm-none-eabi-6-2017-q1-update/bin/../lib/gcc/arm-none-eabi/6.3.1/../../../../arm-none-eabi/lib/thumb/v7e-m/fpv4-sp/hard/libc.a(lib_a-vfprintf.o)
 .ARM.attributes
                0x00000000000003ac       0x34 /home/kaviya/ti/ccsv7/tools/compiler/gcc-arm-none-eabi-6-2017-q1-update/bin/../lib/gcc/arm-none-eabi/6.3.1/../../../../arm-none-eabi/lib/thumb/v7e-m/fpv4-sp/hard/libc.a(lib_a-wsetup.o)
 .ARM.attributes
                0x00000000000003e0       0x34 /home/kaviya/ti/ccsv7/tools/compiler/gcc-arm-none-eabi-6-2017-q1-update/bin/../lib/gcc/arm-none-eabi/6.3.1/../../../../arm-none-eabi/lib/thumb/v7e-m/fpv4-sp/hard/libc.a(lib_a-__call_atexit.o)
 .ARM.attributes
                0x0000000000000414       0x34 /home/kaviya/ti/ccsv7/tools/compiler/gcc-arm-none-eabi-6-2017-q1-update/bin/../lib/gcc/arm-none-eabi/6.3.1/../../../../arm-none-eabi/lib/thumb/v7e-m/fpv4-sp/hard/libc.a(lib_a-atexit.o)
 .ARM.attributes
                0x0000000000000448       0x34 /home/kaviya/ti/ccsv7/tools/compiler/gcc-arm-none-eabi-6-2017-q1-update/bin/../lib/gcc/arm-none-eabi/6.3.1/../../../../arm-none-eabi/lib/thumb/v7e-m/fpv4-sp/hard/libc.a(lib_a-dtoa.o)
 .ARM.attributes
                0x000000000000047c       0x34 /home/kaviya/ti/ccsv7/tools/compiler/gcc-arm-none-eabi-6-2017-q1-update/bin/../lib/gcc/arm-none-eabi/6.3.1/../../../../arm-none-eabi/lib/thumb/v7e-m/fpv4-sp/hard/libc.a(lib_a-fflush.o)
 .ARM.attributes
                0x00000000000004b0       0x34 /home/kaviya/ti/ccsv7/tools/compiler/gcc-arm-none-eabi-6-2017-q1-update/bin/../lib/gcc/arm-none-eabi/6.3.1/../../../../arm-none-eabi/lib/thumb/v7e-m/fpv4-sp/hard/libc.a(lib_a-findfp.o)
 .ARM.attributes
                0x00000000000004e4       0x34 /home/kaviya/ti/ccsv7/tools/compiler/gcc-arm-none-eabi-6-2017-q1-update/bin/../lib/gcc/arm-none-eabi/6.3.1/../../../../arm-none-eabi/lib/thumb/v7e-m/fpv4-sp/hard/libc.a(lib_a-fini.o)
 .ARM.attributes
                0x0000000000000518       0x34 /home/kaviya/ti/ccsv7/tools/compiler/gcc-arm-none-eabi-6-2017-q1-update/bin/../lib/gcc/arm-none-eabi/6.3.1/../../../../arm-none-eabi/lib/thumb/v7e-m/fpv4-sp/hard/libc.a(lib_a-freer.o)
 .ARM.attributes
                0x000000000000054c       0x34 /home/kaviya/ti/ccsv7/tools/compiler/gcc-arm-none-eabi-6-2017-q1-update/bin/../lib/gcc/arm-none-eabi/6.3.1/../../../../arm-none-eabi/lib/thumb/v7e-m/fpv4-sp/hard/libc.a(lib_a-fwalk.o)
 .ARM.attributes
                0x0000000000000580       0x34 /home/kaviya/ti/ccsv7/tools/compiler/gcc-arm-none-eabi-6-2017-q1-update/bin/../lib/gcc/arm-none-eabi/6.3.1/../../../../arm-none-eabi/lib/thumb/v7e-m/fpv4-sp/hard/libc.a(lib_a-localeconv.o)
 .ARM.attributes
                0x00000000000005b4       0x34 /home/kaviya/ti/ccsv7/tools/compiler/gcc-arm-none-eabi-6-2017-q1-update/bin/../lib/gcc/arm-none-eabi/6.3.1/../../../../arm-none-eabi/lib/thumb/v7e-m/fpv4-sp/hard/libc.a(lib_a-lock.o)
 .ARM.attributes
                0x00000000000005e8       0x34 /home/kaviya/ti/ccsv7/tools/compiler/gcc-arm-none-eabi-6-2017-q1-update/bin/../lib/gcc/arm-none-eabi/6.3.1/../../../../arm-none-eabi/lib/thumb/v7e-m/fpv4-sp/hard/libc.a(lib_a-makebuf.o)
 .ARM.attributes
                0x000000000000061c       0x34 /home/kaviya/ti/ccsv7/tools/compiler/gcc-arm-none-eabi-6-2017-q1-update/bin/../lib/gcc/arm-none-eabi/6.3.1/../../../../arm-none-eabi/lib/thumb/v7e-m/fpv4-sp/hard/libc.a(lib_a-mallocr.o)
 .ARM.attributes
                0x0000000000000650       0x20 /home/kaviya/ti/ccsv7/tools/compiler/gcc-arm-none-eabi-6-2017-q1-update/bin/../lib/gcc/arm-none-eabi/6.3.1/../../../../arm-none-eabi/lib/thumb/v7e-m/fpv4-sp/hard/libc.a(lib_a-memchr.o)
 .ARM.attributes
                0x0000000000000670       0x34 /home/kaviya/ti/ccsv7/tools/compiler/gcc-arm-none-eabi-6-2017-q1-update/bin/../lib/gcc/arm-none-eabi/6.3.1/../../../../arm-none-eabi/lib/thumb/v7e-m/fpv4-sp/hard/libc.a(lib_a-mlock.o)
 .ARM.attributes
                0x00000000000006a4       0x34 /home/kaviya/ti/ccsv7/tools/compiler/gcc-arm-none-eabi-6-2017-q1-update/bin/../lib/gcc/arm-none-eabi/6.3.1/../../../../arm-none-eabi/lib/thumb/v7e-m/fpv4-sp/hard/libc.a(lib_a-mprec.o)
 .ARM.attributes
                0x00000000000006d8       0x34 /home/kaviya/ti/ccsv7/tools/compiler/gcc-arm-none-eabi-6-2017-q1-update/bin/../lib/gcc/arm-none-eabi/6.3.1/../../../../arm-none-eabi/lib/thumb/v7e-m/fpv4-sp/hard/libc.a(lib_a-sbrkr.o)
 .ARM.attributes
                0x000000000000070c       0x34 /home/kaviya/ti/ccsv7/tools/compiler/gcc-arm-none-eabi-6-2017-q1-update/bin/../lib/gcc/arm-none-eabi/6.3.1/../../../../arm-none-eabi/lib/thumb/v7e-m/fpv4-sp/hard/libc.a(lib_a-stdio.o)
 .ARM.attributes
                0x0000000000000740       0x34 /home/kaviya/ti/ccsv7/tools/compiler/gcc-arm-none-eabi-6-2017-q1-update/bin/../lib/gcc/arm-none-eabi/6.3.1/../../../../arm-none-eabi/lib/thumb/v7e-m/fpv4-sp/hard/libc.a(lib_a-vfiprintf.o)
 .ARM.attributes
                0x0000000000000774       0x34 /home/kaviya/ti/ccsv7/tools/compiler/gcc-arm-none-eabi-6-2017-q1-update/bin/../lib/gcc/arm-none-eabi/6.3.1/../../../../arm-none-eabi/lib/thumb/v7e-m/fpv4-sp/hard/libc.a(lib_a-writer.o)
 .ARM.attributes
                0x00000000000007a8       0x34 /home/kaviya/ti/ccsv7/tools/compiler/gcc-arm-none-eabi-6-2017-q1-update/bin/../lib/gcc/arm-none-eabi/6.3.1/../../../../arm-none-eabi/lib/thumb/v7e-m/fpv4-sp/hard/libc.a(lib_a-__atexit.o)
 .ARM.attributes
                0x00000000000007dc       0x34 /home/kaviya/ti/ccsv7/tools/compiler/gcc-arm-none-eabi-6-2017-q1-update/bin/../lib/gcc/arm-none-eabi/6.3.1/../../../../arm-none-eabi/lib/thumb/v7e-m/fpv4-sp/hard/libc.a(lib_a-callocr.o)
 .ARM.attributes
                0x0000000000000810       0x34 /home/kaviya/ti/ccsv7/tools/compiler/gcc-arm-none-eabi-6-2017-q1-update/bin/../lib/gcc/arm-none-eabi/6.3.1/../../../../arm-none-eabi/lib/thumb/v7e-m/fpv4-sp/hard/libc.a(lib_a-closer.o)
 .ARM.attributes
                0x0000000000000844       0x34 /home/kaviya/ti/ccsv7/tools/compiler/gcc-arm-none-eabi-6-2017-q1-update/bin/../lib/gcc/arm-none-eabi/6.3.1/../../../../arm-none-eabi/lib/thumb/v7e-m/fpv4-sp/hard/libc.a(lib_a-fclose.o)
 .ARM.attributes
                0x0000000000000878       0x34 /home/kaviya/ti/ccsv7/tools/compiler/gcc-arm-none-eabi-6-2017-q1-update/bin/../lib/gcc/arm-none-eabi/6.3.1/../../../../arm-none-eabi/lib/thumb/v7e-m/fpv4-sp/hard/libc.a(lib_a-fputwc.o)
 .ARM.attributes
                0x00000000000008ac       0x34 /home/kaviya/ti/ccsv7/tools/compiler/gcc-arm-none-eabi-6-2017-q1-update/bin/../lib/gcc/arm-none-eabi/6.3.1/../../../../arm-none-eabi/lib/thumb/v7e-m/fpv4-sp/hard/libc.a(lib_a-fstatr.o)
 .ARM.attributes
                0x00000000000008e0       0x34 /home/kaviya/ti/ccsv7/tools/compiler/gcc-arm-none-eabi-6-2017-q1-update/bin/../lib/gcc/arm-none-eabi/6.3.1/../../../../arm-none-eabi/lib/thumb/v7e-m/fpv4-sp/hard/libc.a(lib_a-fvwrite.o)
 .ARM.attributes
                0x0000000000000914       0x34 /home/kaviya/ti/ccsv7/tools/compiler/gcc-arm-none-eabi-6-2017-q1-update/bin/../lib/gcc/arm-none-eabi/6.3.1/../../../../arm-none-eabi/lib/thumb/v7e-m/fpv4-sp/hard/libc.a(lib_a-isattyr.o)
 .ARM.attributes
                0x0000000000000948       0x34 /home/kaviya/ti/ccsv7/tools/compiler/gcc-arm-none-eabi-6-2017-q1-update/bin/../lib/gcc/arm-none-eabi/6.3.1/../../../../arm-none-eabi/lib/thumb/v7e-m/fpv4-sp/hard/libc.a(lib_a-locale.o)
 .ARM.attributes
                0x000000000000097c       0x34 /home/kaviya/ti/ccsv7/tools/compiler/gcc-arm-none-eabi-6-2017-q1-update/bin/../lib/gcc/arm-none-eabi/6.3.1/../../../../arm-none-eabi/lib/thumb/v7e-m/fpv4-sp/hard/libc.a(lib_a-lseekr.o)
 .ARM.attributes
                0x00000000000009b0       0x34 /home/kaviya/ti/ccsv7/tools/compiler/gcc-arm-none-eabi-6-2017-q1-update/bin/../lib/gcc/arm-none-eabi/6.3.1/../../../../arm-none-eabi/lib/thumb/v7e-m/fpv4-sp/hard/libc.a(lib_a-mbtowc_r.o)
 .ARM.attributes
                0x00000000000009e4       0x34 /home/kaviya/ti/ccsv7/tools/compiler/gcc-arm-none-eabi-6-2017-q1-update/bin/../lib/gcc/arm-none-eabi/6.3.1/../../../../arm-none-eabi/lib/thumb/v7e-m/fpv4-sp/hard/libc.a(lib_a-memmove.o)
 .ARM.attributes
                0x0000000000000a18       0x34 /home/kaviya/ti/ccsv7/tools/compiler/gcc-arm-none-eabi-6-2017-q1-update/bin/../lib/gcc/arm-none-eabi/6.3.1/../../../../arm-none-eabi/lib/thumb/v7e-m/fpv4-sp/hard/libc.a(lib_a-readr.o)
 .ARM.attributes
                0x0000000000000a4c       0x34 /home/kaviya/ti/ccsv7/tools/compiler/gcc-arm-none-eabi-6-2017-q1-update/bin/../lib/gcc/arm-none-eabi/6.3.1/../../../../arm-none-eabi/lib/thumb/v7e-m/fpv4-sp/hard/libc.a(lib_a-reallocr.o)
 .ARM.attributes
                0x0000000000000a80       0x34 /home/kaviya/ti/ccsv7/tools/compiler/gcc-arm-none-eabi-6-2017-q1-update/bin/../lib/gcc/arm-none-eabi/6.3.1/../../../../arm-none-eabi/lib/thumb/v7e-m/fpv4-sp/hard/libc.a(lib_a-reent.o)
 .ARM.attributes
                0x0000000000000ab4       0x20 /home/kaviya/ti/ccsv7/tools/compiler/gcc-arm-none-eabi-6-2017-q1-update/bin/../lib/gcc/arm-none-eabi/6.3.1/../../../../arm-none-eabi/lib/thumb/v7e-m/fpv4-sp/hard/libc.a(lib_a-strcmp.o)
 .ARM.attributes
                0x0000000000000ad4       0x34 /home/kaviya/ti/ccsv7/tools/compiler/gcc-arm-none-eabi-6-2017-q1-update/bin/../lib/gcc/arm-none-eabi/6.3.1/../../../../arm-none-eabi/lib/thumb/v7e-m/fpv4-sp/hard/libc.a(lib_a-wbuf.o)
 .ARM.attributes
                0x0000000000000b08       0x34 /home/kaviya/ti/ccsv7/tools/compiler/gcc-arm-none-eabi-6-2017-q1-update/bin/../lib/gcc/arm-none-eabi/6.3.1/../../../../arm-none-eabi/lib/thumb/v7e-m/fpv4-sp/hard/libc.a(lib_a-wcrtomb.o)
 .ARM.attributes
                0x0000000000000b3c       0x34 /home/kaviya/ti/ccsv7/tools/compiler/gcc-arm-none-eabi-6-2017-q1-update/bin/../lib/gcc/arm-none-eabi/6.3.1/../../../../arm-none-eabi/lib/thumb/v7e-m/fpv4-sp/hard/libc.a(lib_a-wctomb_r.o)
 .ARM.attributes
                0x0000000000000b70       0x34 /home/kaviya/ti/ccsv7/tools/compiler/gcc-arm-none-eabi-6-2017-q1-update/bin/../lib/gcc/arm-none-eabi/6.3.1/../../../../arm-none-eabi/lib/thumb/v7e-m/fpv4-sp/hard/libc.a(lib_a-ctype_.o)
 .ARM.attributes
                0x0000000000000ba4       0x34 /home/kaviya/ti/ccsv7/tools/compiler/gcc-arm-none-eabi-6-2017-q1-update/bin/../lib/gcc/arm-none-eabi/6.3.1/../../../../arm-none-eabi/lib/thumb/v7e-m/fpv4-sp/hard/librdimon.a(rdimon-syscalls.o)
 .ARM.attributes
                0x0000000000000bd8       0x34 /home/kaviya/ti/ccsv7/tools/compiler/gcc-arm-none-eabi-6-2017-q1-update/bin/../lib/gcc/arm-none-eabi/6.3.1/../../../../arm-none-eabi/lib/thumb/v7e-m/fpv4-sp/hard/librdimon.a(rdimon-_exit.o)
 .ARM.attributes
                0x0000000000000c0c       0x34 /home/kaviya/ti/ccsv7/tools/compiler/gcc-arm-none-eabi-6-2017-q1-update/bin/../lib/gcc/arm-none-eabi/6.3.1/../../../../arm-none-eabi/lib/thumb/v7e-m/fpv4-sp/hard/librdimon.a(rdimon-_kill.o)
 .ARM.attributes
                0x0000000000000c40       0x34 /home/kaviya/ti/ccsv7/tools/compiler/gcc-arm-none-eabi-6-2017-q1-update/bin/../lib/gcc/arm-none-eabi/6.3.1/../../../../arm-none-eabi/lib/thumb/v7e-m/fpv4-sp/hard/libc.a(lib_a-errno.o)
 .ARM.attributes
                0x0000000000000c74       0x3b /home/kaviya/ti/TivaWare_C_Series-2.1.4.178/driverlib/gcc/libdriver.a(fpu.o)
 .ARM.attributes
                0x0000000000000caf       0x3b /home/kaviya/ti/TivaWare_C_Series-2.1.4.178/driverlib/gcc/libdriver.a(gpio.o)
 .ARM.attributes
                0x0000000000000cea       0x3b /home/kaviya/ti/TivaWare_C_Series-2.1.4.178/driverlib/gcc/libdriver.a(interrupt.o)
 .ARM.attributes
                0x0000000000000d25       0x3b /home/kaviya/ti/TivaWare_C_Series-2.1.4.178/driverlib/gcc/libdriver.a(ssi.o)
 .ARM.attributes
                0x0000000000000d60       0x3b /home/kaviya/ti/TivaWare_C_Series-2.1.4.178/driverlib/gcc/libdriver.a(sysctl.o)
 .ARM.attributes
                0x0000000000000d9b       0x3b /home/kaviya/ti/TivaWare_C_Series-2.1.4.178/driverlib/gcc/libdriver.a(uart.o)
 .ARM.attributes
                0x0000000000000dd6       0x3b /home/kaviya/ti/TivaWare_C_Series-2.1.4.178/driverlib/gcc/libdriver.a(cpu.o)
 .ARM.attributes
                0x0000000000000e11       0x3b /home/kaviya/ti/TivaWare_C_Series-2.1.4.178/grlib/gcc/libgr.a(context.o)
 .ARM.attributes
                0x0000000000000e4c       0x3b /home/kaviya/ti/TivaWare_C_Series-2.1.4.178/grlib/gcc/libgr.a(fontcm12.o)
 .ARM.attributes
                0x0000000000000e87       0x3b /home/kaviya/ti/TivaWare_C_Series-2.1.4.178/grlib/gcc/libgr.a(line.o)
 .ARM.attributes
                0x0000000000000ec2       0x3b /home/kaviya/ti/TivaWare_C_Series-2.1.4.178/grlib/gcc/libgr.a(rectangle.o)
 .ARM.attributes
                0x0000000000000efd       0x3b /home/kaviya/ti/TivaWare_C_Series-2.1.4.178/grlib/gcc/libgr.a(string.o)
 .ARM.attributes
                0x0000000000000f38       0x3b /home/kaviya/ti/TivaWare_C_Series-2.1.4.178/grlib/gcc/libgr.a(charmap.o)
 .ARM.attributes
                0x0000000000000f73       0x22 /home/kaviya/ti/ccsv7/tools/compiler/gcc-arm-none-eabi-6-2017-q1-update/bin/../lib/gcc/arm-none-eabi/6.3.1/thumb/v7e-m/fpv4-sp/hard/libgcc.a(_arm_addsubdf3.o)
 .ARM.attributes
                0x0000000000000f95       0x22 /home/kaviya/ti/ccsv7/tools/compiler/gcc-arm-none-eabi-6-2017-q1-update/bin/../lib/gcc/arm-none-eabi/6.3.1/thumb/v7e-m/fpv4-sp/hard/libgcc.a(_arm_muldivdf3.o)
 .ARM.attributes
                0x0000000000000fb7       0x22 /home/kaviya/ti/ccsv7/tools/compiler/gcc-arm-none-eabi-6-2017-q1-update/bin/../lib/gcc/arm-none-eabi/6.3.1/thumb/v7e-m/fpv4-sp/hard/libgcc.a(_arm_cmpdf2.o)
 .ARM.attributes
                0x0000000000000fd9       0x22 /home/kaviya/ti/ccsv7/tools/compiler/gcc-arm-none-eabi-6-2017-q1-update/bin/../lib/gcc/arm-none-eabi/6.3.1/thumb/v7e-m/fpv4-sp/hard/libgcc.a(_arm_unorddf2.o)
 .ARM.attributes
                0x0000000000000ffb       0x22 /home/kaviya/ti/ccsv7/tools/compiler/gcc-arm-none-eabi-6-2017-q1-update/bin/../lib/gcc/arm-none-eabi/6.3.1/thumb/v7e-m/fpv4-sp/hard/libgcc.a(_arm_fixdfsi.o)
 .ARM.attributes
                0x000000000000101d       0x22 /home/kaviya/ti/ccsv7/tools/compiler/gcc-arm-none-eabi-6-2017-q1-update/bin/../lib/gcc/arm-none-eabi/6.3.1/thumb/v7e-m/fpv4-sp/hard/libgcc.a(_arm_truncdfsf2.o)
 .ARM.attributes
                0x000000000000103f       0x22 /home/kaviya/ti/ccsv7/tools/compiler/gcc-arm-none-eabi-6-2017-q1-update/bin/../lib/gcc/arm-none-eabi/6.3.1/thumb/v7e-m/fpv4-sp/hard/libgcc.a(_aeabi_uldivmod.o)
 .ARM.attributes
                0x0000000000001061       0x34 /home/kaviya/ti/ccsv7/tools/compiler/gcc-arm-none-eabi-6-2017-q1-update/bin/../lib/gcc/arm-none-eabi/6.3.1/thumb/v7e-m/fpv4-sp/hard/libgcc.a(_udivmoddi4.o)
 .ARM.attributes
                0x0000000000001095       0x22 /home/kaviya/ti/ccsv7/tools/compiler/gcc-arm-none-eabi-6-2017-q1-update/bin/../lib/gcc/arm-none-eabi/6.3.1/thumb/v7e-m/fpv4-sp/hard/libgcc.a(_dvmd_tls.o)
 .ARM.attributes
                0x00000000000010b7       0x34 /home/kaviya/ti/ccsv7/tools/compiler/gcc-arm-none-eabi-6-2017-q1-update/bin/../lib/gcc/arm-none-eabi/6.3.1/thumb/v7e-m/fpv4-sp/hard/crtend.o
 .ARM.attributes
                0x00000000000010eb       0x22 /home/kaviya/ti/ccsv7/tools/compiler/gcc-arm-none-eabi-6-2017-q1-update/bin/../lib/gcc/arm-none-eabi/6.3.1/thumb/v7e-m/fpv4-sp/hard/crtn.o

.comment        0x0000000000000000       0xef
 .comment       0x0000000000000000       0x7f ./Kentec320x240x16_ssd2119_spi.o
                                         0x80 (size before relaxing)
 .comment       0x000000000000007f       0x80 ./LCD.o
 .comment       0x000000000000007f       0x80 ./LCD_stairs.o
 .comment       0x000000000000007f       0x80 ./UART.o
 .comment       0x000000000000007f       0x80 ./tm4c123gh6pm_startup_ccs_gcc.o
 .comment       0x000000000000007f       0x80 ./ustdlib.o
 .comment       0x000000000000007f       0x70 /home/kaviya/ti/TivaWare_C_Series-2.1.4.178/driverlib/gcc/libdriver.a(fpu.o)
                                         0x71 (size before relaxing)
 .comment       0x00000000000000ef       0x71 /home/kaviya/ti/TivaWare_C_Series-2.1.4.178/driverlib/gcc/libdriver.a(gpio.o)
 .comment       0x00000000000000ef       0x71 /home/kaviya/ti/TivaWare_C_Series-2.1.4.178/driverlib/gcc/libdriver.a(interrupt.o)
 .comment       0x00000000000000ef       0x71 /home/kaviya/ti/TivaWare_C_Series-2.1.4.178/driverlib/gcc/libdriver.a(ssi.o)
 .comment       0x00000000000000ef       0x71 /home/kaviya/ti/TivaWare_C_Series-2.1.4.178/driverlib/gcc/libdriver.a(sysctl.o)
 .comment       0x00000000000000ef       0x71 /home/kaviya/ti/TivaWare_C_Series-2.1.4.178/driverlib/gcc/libdriver.a(uart.o)
 .comment       0x00000000000000ef       0x71 /home/kaviya/ti/TivaWare_C_Series-2.1.4.178/driverlib/gcc/libdriver.a(cpu.o)
 .comment       0x00000000000000ef       0x71 /home/kaviya/ti/TivaWare_C_Series-2.1.4.178/grlib/gcc/libgr.a(context.o)
 .comment       0x00000000000000ef       0x71 /home/kaviya/ti/TivaWare_C_Series-2.1.4.178/grlib/gcc/libgr.a(fontcm12.o)
 .comment       0x00000000000000ef       0x71 /home/kaviya/ti/TivaWare_C_Series-2.1.4.178/grlib/gcc/libgr.a(line.o)
 .comment       0x00000000000000ef       0x71 /home/kaviya/ti/TivaWare_C_Series-2.1.4.178/grlib/gcc/libgr.a(rectangle.o)
 .comment       0x00000000000000ef       0x71 /home/kaviya/ti/TivaWare_C_Series-2.1.4.178/grlib/gcc/libgr.a(string.o)
 .comment       0x00000000000000ef       0x71 /home/kaviya/ti/TivaWare_C_Series-2.1.4.178/grlib/gcc/libgr.a(charmap.o)

.debug_info     0x0000000000000000     0x65ac
 .debug_info    0x0000000000000000      0xf47 ./Kentec320x240x16_ssd2119_spi.o
 .debug_info    0x0000000000000f47     0x1de0 ./LCD.o
 .debug_info    0x0000000000002d27     0x19b6 ./LCD_stairs.o
 .debug_info    0x00000000000046dd      0xcf9 ./UART.o
 .debug_info    0x00000000000053d6      0x194 ./tm4c123gh6pm_startup_ccs_gcc.o
 .debug_info    0x000000000000556a     0x1042 ./ustdlib.o

.debug_abbrev   0x0000000000000000      0xc59
 .debug_abbrev  0x0000000000000000      0x176 ./Kentec320x240x16_ssd2119_spi.o
 .debug_abbrev  0x0000000000000176      0x259 ./LCD.o
 .debug_abbrev  0x00000000000003cf      0x23c ./LCD_stairs.o
 .debug_abbrev  0x000000000000060b      0x2bc ./UART.o
 .debug_abbrev  0x00000000000008c7       0xca ./tm4c123gh6pm_startup_ccs_gcc.o
 .debug_abbrev  0x0000000000000991      0x2c8 ./ustdlib.o

.debug_aranges  0x0000000000000000      0x240
 .debug_aranges
                0x0000000000000000       0x80 ./Kentec320x240x16_ssd2119_spi.o
 .debug_aranges
                0x0000000000000080       0x40 ./LCD.o
 .debug_aranges
                0x00000000000000c0       0x30 ./LCD_stairs.o
 .debug_aranges
                0x00000000000000f0       0x78 ./UART.o
 .debug_aranges
                0x0000000000000168       0x38 ./tm4c123gh6pm_startup_ccs_gcc.o
 .debug_aranges
                0x00000000000001a0       0xa0 ./ustdlib.o

.debug_ranges   0x0000000000000000      0x1e0
 .debug_ranges  0x0000000000000000       0x70 ./Kentec320x240x16_ssd2119_spi.o
 .debug_ranges  0x0000000000000070       0x30 ./LCD.o
 .debug_ranges  0x00000000000000a0       0x20 ./LCD_stairs.o
 .debug_ranges  0x00000000000000c0       0x68 ./UART.o
 .debug_ranges  0x0000000000000128       0x28 ./tm4c123gh6pm_startup_ccs_gcc.o
 .debug_ranges  0x0000000000000150       0x90 ./ustdlib.o

.debug_line     0x0000000000000000     0x15d4
 .debug_line    0x0000000000000000      0x368 ./Kentec320x240x16_ssd2119_spi.o
 .debug_line    0x0000000000000368      0x474 ./LCD.o
 .debug_line    0x00000000000007dc      0x397 ./LCD_stairs.o
 .debug_line    0x0000000000000b73      0x3e9 ./UART.o
 .debug_line    0x0000000000000f5c      0x177 ./tm4c123gh6pm_startup_ccs_gcc.o
 .debug_line    0x00000000000010d3      0x501 ./ustdlib.o

.debug_str      0x0000000000000000     0x182e
 .debug_str     0x0000000000000000      0xcfd ./Kentec320x240x16_ssd2119_spi.o
                                        0xd72 (size before relaxing)
 .debug_str     0x0000000000000cfd      0x6fb ./LCD.o
                                       0x1298 (size before relaxing)
 .debug_str     0x00000000000013f8       0x77 ./LCD_stairs.o
                                       0x123b (size before relaxing)
 .debug_str     0x000000000000146f      0x167 ./UART.o
                                        0x77f (size before relaxing)
 .debug_str     0x00000000000015d6       0xbb ./tm4c123gh6pm_startup_ccs_gcc.o
                                        0x25c (size before relaxing)
 .debug_str     0x0000000000001691      0x19d ./ustdlib.o
                                        0x7dc (size before relaxing)

.debug_frame    0x0000000000000000     0x1ff4
 .debug_frame   0x0000000000000000      0x1e4 ./Kentec320x240x16_ssd2119_spi.o
 .debug_frame   0x00000000000001e4       0xdc ./LCD.o
 .debug_frame   0x00000000000002c0       0x80 ./LCD_stairs.o
 .debug_frame   0x0000000000000340      0x1cc ./UART.o
 .debug_frame   0x000000000000050c       0x7c ./tm4c123gh6pm_startup_ccs_gcc.o
 .debug_frame   0x0000000000000588      0x2bc ./ustdlib.o
 .debug_frame   0x0000000000000844       0x28 /home/kaviya/ti/ccsv7/tools/compiler/gcc-arm-none-eabi-6-2017-q1-update/bin/../lib/gcc/arm-none-eabi/6.3.1/../../../../arm-none-eabi/lib/thumb/v7e-m/fpv4-sp/hard/libc.a(lib_a-exit.o)
 .debug_frame   0x000000000000086c       0x2c /home/kaviya/ti/ccsv7/tools/compiler/gcc-arm-none-eabi-6-2017-q1-update/bin/../lib/gcc/arm-none-eabi/6.3.1/../../../../arm-none-eabi/lib/thumb/v7e-m/fpv4-sp/hard/libc.a(lib_a-init.o)
 .debug_frame   0x0000000000000898       0x3c /home/kaviya/ti/ccsv7/tools/compiler/gcc-arm-none-eabi-6-2017-q1-update/bin/../lib/gcc/arm-none-eabi/6.3.1/../../../../arm-none-eabi/lib/thumb/v7e-m/fpv4-sp/hard/libc.a(lib_a-itoa.o)
 .debug_frame   0x00000000000008d4       0x34 /home/kaviya/ti/ccsv7/tools/compiler/gcc-arm-none-eabi-6-2017-q1-update/bin/../lib/gcc/arm-none-eabi/6.3.1/../../../../arm-none-eabi/lib/thumb/v7e-m/fpv4-sp/hard/libc.a(lib_a-memset.o)
 .debug_frame   0x0000000000000908       0x74 /home/kaviya/ti/ccsv7/tools/compiler/gcc-arm-none-eabi-6-2017-q1-update/bin/../lib/gcc/arm-none-eabi/6.3.1/../../../../arm-none-eabi/lib/thumb/v7e-m/fpv4-sp/hard/libc.a(lib_a-printf.o)
 .debug_frame   0x000000000000097c       0x4c /home/kaviya/ti/ccsv7/tools/compiler/gcc-arm-none-eabi-6-2017-q1-update/bin/../lib/gcc/arm-none-eabi/6.3.1/../../../../arm-none-eabi/lib/thumb/v7e-m/fpv4-sp/hard/libc.a(lib_a-utoa.o)
 .debug_frame   0x00000000000009c8       0x94 /home/kaviya/ti/ccsv7/tools/compiler/gcc-arm-none-eabi-6-2017-q1-update/bin/../lib/gcc/arm-none-eabi/6.3.1/../../../../arm-none-eabi/lib/thumb/v7e-m/fpv4-sp/hard/libc.a(lib_a-vfprintf.o)
 .debug_frame   0x0000000000000a5c       0x2c /home/kaviya/ti/ccsv7/tools/compiler/gcc-arm-none-eabi-6-2017-q1-update/bin/../lib/gcc/arm-none-eabi/6.3.1/../../../../arm-none-eabi/lib/thumb/v7e-m/fpv4-sp/hard/libc.a(lib_a-wsetup.o)
 .debug_frame   0x0000000000000a88       0x5c /home/kaviya/ti/ccsv7/tools/compiler/gcc-arm-none-eabi-6-2017-q1-update/bin/../lib/gcc/arm-none-eabi/6.3.1/../../../../arm-none-eabi/lib/thumb/v7e-m/fpv4-sp/hard/libc.a(lib_a-__call_atexit.o)
 .debug_frame   0x0000000000000ae4       0x20 /home/kaviya/ti/ccsv7/tools/compiler/gcc-arm-none-eabi-6-2017-q1-update/bin/../lib/gcc/arm-none-eabi/6.3.1/../../../../arm-none-eabi/lib/thumb/v7e-m/fpv4-sp/hard/libc.a(lib_a-atexit.o)
 .debug_frame   0x0000000000000b04       0x88 /home/kaviya/ti/ccsv7/tools/compiler/gcc-arm-none-eabi-6-2017-q1-update/bin/../lib/gcc/arm-none-eabi/6.3.1/../../../../arm-none-eabi/lib/thumb/v7e-m/fpv4-sp/hard/libc.a(lib_a-dtoa.o)
 .debug_frame   0x0000000000000b8c       0x5c /home/kaviya/ti/ccsv7/tools/compiler/gcc-arm-none-eabi-6-2017-q1-update/bin/../lib/gcc/arm-none-eabi/6.3.1/../../../../arm-none-eabi/lib/thumb/v7e-m/fpv4-sp/hard/libc.a(lib_a-fflush.o)
 .debug_frame   0x0000000000000be8      0x148 /home/kaviya/ti/ccsv7/tools/compiler/gcc-arm-none-eabi-6-2017-q1-update/bin/../lib/gcc/arm-none-eabi/6.3.1/../../../../arm-none-eabi/lib/thumb/v7e-m/fpv4-sp/hard/libc.a(lib_a-findfp.o)
 .debug_frame   0x0000000000000d30       0x34 /home/kaviya/ti/ccsv7/tools/compiler/gcc-arm-none-eabi-6-2017-q1-update/bin/../lib/gcc/arm-none-eabi/6.3.1/../../../../arm-none-eabi/lib/thumb/v7e-m/fpv4-sp/hard/libc.a(lib_a-fini.o)
 .debug_frame   0x0000000000000d64       0x74 /home/kaviya/ti/ccsv7/tools/compiler/gcc-arm-none-eabi-6-2017-q1-update/bin/../lib/gcc/arm-none-eabi/6.3.1/../../../../arm-none-eabi/lib/thumb/v7e-m/fpv4-sp/hard/libc.a(lib_a-freer.o)
 .debug_frame   0x0000000000000dd8       0x54 /home/kaviya/ti/ccsv7/tools/compiler/gcc-arm-none-eabi-6-2017-q1-update/bin/../lib/gcc/arm-none-eabi/6.3.1/../../../../arm-none-eabi/lib/thumb/v7e-m/fpv4-sp/hard/libc.a(lib_a-fwalk.o)
 .debug_frame   0x0000000000000e2c       0x40 /home/kaviya/ti/ccsv7/tools/compiler/gcc-arm-none-eabi-6-2017-q1-update/bin/../lib/gcc/arm-none-eabi/6.3.1/../../../../arm-none-eabi/lib/thumb/v7e-m/fpv4-sp/hard/libc.a(lib_a-localeconv.o)
 .debug_frame   0x0000000000000e6c       0xb0 /home/kaviya/ti/ccsv7/tools/compiler/gcc-arm-none-eabi-6-2017-q1-update/bin/../lib/gcc/arm-none-eabi/6.3.1/../../../../arm-none-eabi/lib/thumb/v7e-m/fpv4-sp/hard/libc.a(lib_a-lock.o)
 .debug_frame   0x0000000000000f1c       0x68 /home/kaviya/ti/ccsv7/tools/compiler/gcc-arm-none-eabi-6-2017-q1-update/bin/../lib/gcc/arm-none-eabi/6.3.1/../../../../arm-none-eabi/lib/thumb/v7e-m/fpv4-sp/hard/libc.a(lib_a-makebuf.o)
 .debug_frame   0x0000000000000f84       0x58 /home/kaviya/ti/ccsv7/tools/compiler/gcc-arm-none-eabi-6-2017-q1-update/bin/../lib/gcc/arm-none-eabi/6.3.1/../../../../arm-none-eabi/lib/thumb/v7e-m/fpv4-sp/hard/libc.a(lib_a-mallocr.o)
 .debug_frame   0x0000000000000fdc       0x30 /home/kaviya/ti/ccsv7/tools/compiler/gcc-arm-none-eabi-6-2017-q1-update/bin/../lib/gcc/arm-none-eabi/6.3.1/../../../../arm-none-eabi/lib/thumb/v7e-m/fpv4-sp/hard/libc.a(lib_a-mlock.o)
 .debug_frame   0x000000000000100c      0x25c /home/kaviya/ti/ccsv7/tools/compiler/gcc-arm-none-eabi-6-2017-q1-update/bin/../lib/gcc/arm-none-eabi/6.3.1/../../../../arm-none-eabi/lib/thumb/v7e-m/fpv4-sp/hard/libc.a(lib_a-mprec.o)
 .debug_frame   0x0000000000001268       0x2c /home/kaviya/ti/ccsv7/tools/compiler/gcc-arm-none-eabi-6-2017-q1-update/bin/../lib/gcc/arm-none-eabi/6.3.1/../../../../arm-none-eabi/lib/thumb/v7e-m/fpv4-sp/hard/libc.a(lib_a-sbrkr.o)
 .debug_frame   0x0000000000001294       0x88 /home/kaviya/ti/ccsv7/tools/compiler/gcc-arm-none-eabi-6-2017-q1-update/bin/../lib/gcc/arm-none-eabi/6.3.1/../../../../arm-none-eabi/lib/thumb/v7e-m/fpv4-sp/hard/libc.a(lib_a-stdio.o)
 .debug_frame   0x000000000000131c       0xd8 /home/kaviya/ti/ccsv7/tools/compiler/gcc-arm-none-eabi-6-2017-q1-update/bin/../lib/gcc/arm-none-eabi/6.3.1/../../../../arm-none-eabi/lib/thumb/v7e-m/fpv4-sp/hard/libc.a(lib_a-vfiprintf.o)
 .debug_frame   0x00000000000013f4       0x2c /home/kaviya/ti/ccsv7/tools/compiler/gcc-arm-none-eabi-6-2017-q1-update/bin/../lib/gcc/arm-none-eabi/6.3.1/../../../../arm-none-eabi/lib/thumb/v7e-m/fpv4-sp/hard/libc.a(lib_a-writer.o)
 .debug_frame   0x0000000000001420       0x34 /home/kaviya/ti/ccsv7/tools/compiler/gcc-arm-none-eabi-6-2017-q1-update/bin/../lib/gcc/arm-none-eabi/6.3.1/../../../../arm-none-eabi/lib/thumb/v7e-m/fpv4-sp/hard/libc.a(lib_a-__atexit.o)
 .debug_frame   0x0000000000001454       0x28 /home/kaviya/ti/ccsv7/tools/compiler/gcc-arm-none-eabi-6-2017-q1-update/bin/../lib/gcc/arm-none-eabi/6.3.1/../../../../arm-none-eabi/lib/thumb/v7e-m/fpv4-sp/hard/libc.a(lib_a-callocr.o)
 .debug_frame   0x000000000000147c       0x2c /home/kaviya/ti/ccsv7/tools/compiler/gcc-arm-none-eabi-6-2017-q1-update/bin/../lib/gcc/arm-none-eabi/6.3.1/../../../../arm-none-eabi/lib/thumb/v7e-m/fpv4-sp/hard/libc.a(lib_a-closer.o)
 .debug_frame   0x00000000000014a8       0x3c /home/kaviya/ti/ccsv7/tools/compiler/gcc-arm-none-eabi-6-2017-q1-update/bin/../lib/gcc/arm-none-eabi/6.3.1/../../../../arm-none-eabi/lib/thumb/v7e-m/fpv4-sp/hard/libc.a(lib_a-fclose.o)
 .debug_frame   0x00000000000014e4       0x94 /home/kaviya/ti/ccsv7/tools/compiler/gcc-arm-none-eabi-6-2017-q1-update/bin/../lib/gcc/arm-none-eabi/6.3.1/../../../../arm-none-eabi/lib/thumb/v7e-m/fpv4-sp/hard/libc.a(lib_a-fputwc.o)
 .debug_frame   0x0000000000001578       0x2c /home/kaviya/ti/ccsv7/tools/compiler/gcc-arm-none-eabi-6-2017-q1-update/bin/../lib/gcc/arm-none-eabi/6.3.1/../../../../arm-none-eabi/lib/thumb/v7e-m/fpv4-sp/hard/libc.a(lib_a-fstatr.o)
 .debug_frame   0x00000000000015a4       0x68 /home/kaviya/ti/ccsv7/tools/compiler/gcc-arm-none-eabi-6-2017-q1-update/bin/../lib/gcc/arm-none-eabi/6.3.1/../../../../arm-none-eabi/lib/thumb/v7e-m/fpv4-sp/hard/libc.a(lib_a-fvwrite.o)
 .debug_frame   0x000000000000160c       0x2c /home/kaviya/ti/ccsv7/tools/compiler/gcc-arm-none-eabi-6-2017-q1-update/bin/../lib/gcc/arm-none-eabi/6.3.1/../../../../arm-none-eabi/lib/thumb/v7e-m/fpv4-sp/hard/libc.a(lib_a-isattyr.o)
 .debug_frame   0x0000000000001638       0x6c /home/kaviya/ti/ccsv7/tools/compiler/gcc-arm-none-eabi-6-2017-q1-update/bin/../lib/gcc/arm-none-eabi/6.3.1/../../../../arm-none-eabi/lib/thumb/v7e-m/fpv4-sp/hard/libc.a(lib_a-locale.o)
 .debug_frame   0x00000000000016a4       0x2c /home/kaviya/ti/ccsv7/tools/compiler/gcc-arm-none-eabi-6-2017-q1-update/bin/../lib/gcc/arm-none-eabi/6.3.1/../../../../arm-none-eabi/lib/thumb/v7e-m/fpv4-sp/hard/libc.a(lib_a-lseekr.o)
 .debug_frame   0x00000000000016d0       0x4c /home/kaviya/ti/ccsv7/tools/compiler/gcc-arm-none-eabi-6-2017-q1-update/bin/../lib/gcc/arm-none-eabi/6.3.1/../../../../arm-none-eabi/lib/thumb/v7e-m/fpv4-sp/hard/libc.a(lib_a-mbtowc_r.o)
 .debug_frame   0x000000000000171c       0x30 /home/kaviya/ti/ccsv7/tools/compiler/gcc-arm-none-eabi-6-2017-q1-update/bin/../lib/gcc/arm-none-eabi/6.3.1/../../../../arm-none-eabi/lib/thumb/v7e-m/fpv4-sp/hard/libc.a(lib_a-memmove.o)
 .debug_frame   0x000000000000174c       0x2c /home/kaviya/ti/ccsv7/tools/compiler/gcc-arm-none-eabi-6-2017-q1-update/bin/../lib/gcc/arm-none-eabi/6.3.1/../../../../arm-none-eabi/lib/thumb/v7e-m/fpv4-sp/hard/libc.a(lib_a-readr.o)
 .debug_frame   0x0000000000001778       0x68 /home/kaviya/ti/ccsv7/tools/compiler/gcc-arm-none-eabi-6-2017-q1-update/bin/../lib/gcc/arm-none-eabi/6.3.1/../../../../arm-none-eabi/lib/thumb/v7e-m/fpv4-sp/hard/libc.a(lib_a-reallocr.o)
 .debug_frame   0x00000000000017e0       0x58 /home/kaviya/ti/ccsv7/tools/compiler/gcc-arm-none-eabi-6-2017-q1-update/bin/../lib/gcc/arm-none-eabi/6.3.1/../../../../arm-none-eabi/lib/thumb/v7e-m/fpv4-sp/hard/libc.a(lib_a-reent.o)
 .debug_frame   0x0000000000001838       0x68 /home/kaviya/ti/ccsv7/tools/compiler/gcc-arm-none-eabi-6-2017-q1-update/bin/../lib/gcc/arm-none-eabi/6.3.1/../../../../arm-none-eabi/lib/thumb/v7e-m/fpv4-sp/hard/libc.a(lib_a-strcmp.o)
 .debug_frame   0x00000000000018a0       0x40 /home/kaviya/ti/ccsv7/tools/compiler/gcc-arm-none-eabi-6-2017-q1-update/bin/../lib/gcc/arm-none-eabi/6.3.1/../../../../arm-none-eabi/lib/thumb/v7e-m/fpv4-sp/hard/libc.a(lib_a-wbuf.o)
 .debug_frame   0x00000000000018e0       0x5c /home/kaviya/ti/ccsv7/tools/compiler/gcc-arm-none-eabi-6-2017-q1-update/bin/../lib/gcc/arm-none-eabi/6.3.1/../../../../arm-none-eabi/lib/thumb/v7e-m/fpv4-sp/hard/libc.a(lib_a-wcrtomb.o)
 .debug_frame   0x000000000000193c       0x3c /home/kaviya/ti/ccsv7/tools/compiler/gcc-arm-none-eabi-6-2017-q1-update/bin/../lib/gcc/arm-none-eabi/6.3.1/../../../../arm-none-eabi/lib/thumb/v7e-m/fpv4-sp/hard/libc.a(lib_a-wctomb_r.o)
 .debug_frame   0x0000000000001978      0x388 /home/kaviya/ti/ccsv7/tools/compiler/gcc-arm-none-eabi-6-2017-q1-update/bin/../lib/gcc/arm-none-eabi/6.3.1/../../../../arm-none-eabi/lib/thumb/v7e-m/fpv4-sp/hard/librdimon.a(rdimon-syscalls.o)
 .debug_frame   0x0000000000001d00       0x20 /home/kaviya/ti/ccsv7/tools/compiler/gcc-arm-none-eabi-6-2017-q1-update/bin/../lib/gcc/arm-none-eabi/6.3.1/../../../../arm-none-eabi/lib/thumb/v7e-m/fpv4-sp/hard/librdimon.a(rdimon-_exit.o)
 .debug_frame   0x0000000000001d20       0x2c /home/kaviya/ti/ccsv7/tools/compiler/gcc-arm-none-eabi-6-2017-q1-update/bin/../lib/gcc/arm-none-eabi/6.3.1/../../../../arm-none-eabi/lib/thumb/v7e-m/fpv4-sp/hard/librdimon.a(rdimon-_kill.o)
 .debug_frame   0x0000000000001d4c       0x20 /home/kaviya/ti/ccsv7/tools/compiler/gcc-arm-none-eabi-6-2017-q1-update/bin/../lib/gcc/arm-none-eabi/6.3.1/../../../../arm-none-eabi/lib/thumb/v7e-m/fpv4-sp/hard/libc.a(lib_a-errno.o)
 .debug_frame   0x0000000000001d6c       0xac /home/kaviya/ti/ccsv7/tools/compiler/gcc-arm-none-eabi-6-2017-q1-update/bin/../lib/gcc/arm-none-eabi/6.3.1/thumb/v7e-m/fpv4-sp/hard/libgcc.a(_arm_addsubdf3.o)
 .debug_frame   0x0000000000001e18       0x50 /home/kaviya/ti/ccsv7/tools/compiler/gcc-arm-none-eabi-6-2017-q1-update/bin/../lib/gcc/arm-none-eabi/6.3.1/thumb/v7e-m/fpv4-sp/hard/libgcc.a(_arm_muldivdf3.o)
 .debug_frame   0x0000000000001e68       0xc4 /home/kaviya/ti/ccsv7/tools/compiler/gcc-arm-none-eabi-6-2017-q1-update/bin/../lib/gcc/arm-none-eabi/6.3.1/thumb/v7e-m/fpv4-sp/hard/libgcc.a(_arm_cmpdf2.o)
 .debug_frame   0x0000000000001f2c       0x20 /home/kaviya/ti/ccsv7/tools/compiler/gcc-arm-none-eabi-6-2017-q1-update/bin/../lib/gcc/arm-none-eabi/6.3.1/thumb/v7e-m/fpv4-sp/hard/libgcc.a(_arm_unorddf2.o)
 .debug_frame   0x0000000000001f4c       0x24 /home/kaviya/ti/ccsv7/tools/compiler/gcc-arm-none-eabi-6-2017-q1-update/bin/../lib/gcc/arm-none-eabi/6.3.1/thumb/v7e-m/fpv4-sp/hard/libgcc.a(_arm_fixdfsi.o)
 .debug_frame   0x0000000000001f70       0x24 /home/kaviya/ti/ccsv7/tools/compiler/gcc-arm-none-eabi-6-2017-q1-update/bin/../lib/gcc/arm-none-eabi/6.3.1/thumb/v7e-m/fpv4-sp/hard/libgcc.a(_arm_truncdfsf2.o)
 .debug_frame   0x0000000000001f94       0x2c /home/kaviya/ti/ccsv7/tools/compiler/gcc-arm-none-eabi-6-2017-q1-update/bin/../lib/gcc/arm-none-eabi/6.3.1/thumb/v7e-m/fpv4-sp/hard/libgcc.a(_aeabi_uldivmod.o)
 .debug_frame   0x0000000000001fc0       0x34 /home/kaviya/ti/ccsv7/tools/compiler/gcc-arm-none-eabi-6-2017-q1-update/bin/../lib/gcc/arm-none-eabi/6.3.1/thumb/v7e-m/fpv4-sp/hard/libgcc.a(_udivmoddi4.o)
